

Microchip MPLAB XC8 Assembler V2.46 build 20240104201356 
                                                                                               Wed Sep 04 09:54:57 2024

Microchip MPLAB XC8 C Compiler v2.46 (Free license) build 20240104201356 Og1 
     1                           	processor	16F1518
     2                           	pagewidth 120
     3                           	opt	flic
     4                           	psect	stringtext1,global,class=STRCODE,delta=2,noexec
     5                           	psect	stringtext2,global,class=STRCODE,delta=2,noexec
     6                           	psect	nvBANK0,global,class=BANK0,space=1,delta=1,noexec
     7                           	psect	cinit,global,class=CODE,merge=1,delta=2
     8                           	psect	bssCOMMON,global,class=COMMON,space=1,delta=1,noexec
     9                           	psect	bssBANK0,global,class=BANK0,space=1,delta=1,noexec
    10                           	psect	cstackCOMMON,global,class=COMMON,space=1,delta=1,noexec
    11                           	psect	maintext,global,class=CODE,merge=1,split=1,delta=2
    12                           	psect	text1,local,class=CODE,merge=1,delta=2
    13                           	psect	text2,local,class=CODE,merge=1,delta=2,group=1
    14                           	psect	text3,local,class=CODE,merge=1,delta=2,group=1
    15                           	psect	text4,local,class=CODE,merge=1,delta=2
    16                           	psect	text5,local,class=CODE,merge=1,delta=2
    17                           	psect	text6,local,class=CODE,merge=1,delta=2
    18                           	psect	text7,local,class=CODE,merge=1,delta=2
    19                           	psect	text8,local,class=CODE,merge=1,delta=2
    20                           	psect	text9,local,class=CODE,merge=1,delta=2
    21                           	psect	text10,local,class=CODE,merge=1,delta=2
    22                           	psect	text11,local,class=CODE,merge=1,delta=2
    23                           	psect	text12,local,class=CODE,merge=1,delta=2
    24                           	psect	config,global,abs,ovrld,class=CONFIG,space=4,delta=2,noexec
    25                           	dabs	1,0x7E,2
    26     0000                     
    27                           ; Generated 07/09/2023 GMT
    28                           ; 
    29                           ; Copyright © 2023, Microchip Technology Inc. and its subsidiaries ("Microchip")
    30                           ; All rights reserved.
    31                           ; 
    32                           ; This software is developed by Microchip Technology Inc. and its subsidiaries ("Microch
      +                          ip").
    33                           ; 
    34                           ; Redistribution and use in source and binary forms, with or without modification, are
    35                           ; permitted provided that the following conditions are met:
    36                           ; 
    37                           ;     1. Redistributions of source code must retain the above copyright notice, this lis
      +                          t of
    38                           ;        conditions and the following disclaimer.
    39                           ; 
    40                           ;     2. Redistributions in binary form must reproduce the above copyright notice, this 
      +                          list
    41                           ;        of conditions and the following disclaimer in the documentation and/or other
    42                           ;        materials provided with the distribution. Publication is not required when
    43                           ;        this file is used in an embedded application.
    44                           ; 
    45                           ;     3. Microchip's name may not be used to endorse or promote products derived from th
      +                          is
    46                           ;        software without specific prior written permission.
    47                           ; 
    48                           ; THIS SOFTWARE IS PROVIDED BY MICROCHIP "AS IS" AND ANY EXPRESS OR IMPLIED WARRANTIES,
    49                           ; INCLUDING, BUT NOT LIMITED TO, THE IMPLIED WARRANTIES OF MERCHANTABILITY AND FITNESS F
      +                          OR
    50                           ; PURPOSE ARE DISCLAIMED.  IN NO EVENT SHALL MICROCHIP BE LIABLE FOR ANY DIRECT, INDIREC
      +                          T,
    51                           ; INCIDENTAL, SPECIAL, EXEMPLARY, OR CONSEQUENTIAL DAMAGES (INCLUDING BUT NOT LIMITED TO
    52                           ; PROCUREMENT OF SUBSTITUTE GOODS OR SERVICES; LOSS OF USE, DATA OR PROFITS; OR BUSINESS
    53                           ; INTERRUPTION) HOWSOEVER CAUSED AND ON ANY THEORY OF LIABILITY, WHETHER IN CONTRACT, ST
      +                          RICT
    54                           ; LIABILITY, OR TORT (INCLUDING NEGLIGENCE OR OTHERWISE) ARISING IN ANY WAY OUT OF THE U
      +                          SE OF
    55                           ; THIS SOFTWARE, EVEN IF ADVISED OF THE POSSIBILITY OF SUCH DAMAGE.
    56                           ; 
    57                           ; 
    58                           ; Code-generator required, PIC16F1518 Definitions
    59                           ; 
    60                           ; SFR Addresses
    61     0000                     	;# 
    62     0001                     	;# 
    63     0002                     	;# 
    64     0003                     	;# 
    65     0004                     	;# 
    66     0005                     	;# 
    67     0006                     	;# 
    68     0007                     	;# 
    69     0008                     	;# 
    70     0009                     	;# 
    71     000A                     	;# 
    72     000B                     	;# 
    73     000C                     	;# 
    74     000D                     	;# 
    75     000E                     	;# 
    76     0010                     	;# 
    77     0011                     	;# 
    78     0012                     	;# 
    79     0015                     	;# 
    80     0016                     	;# 
    81     0016                     	;# 
    82     0017                     	;# 
    83     0018                     	;# 
    84     0019                     	;# 
    85     001A                     	;# 
    86     001B                     	;# 
    87     001C                     	;# 
    88     008C                     	;# 
    89     008D                     	;# 
    90     008E                     	;# 
    91     0090                     	;# 
    92     0091                     	;# 
    93     0092                     	;# 
    94     0095                     	;# 
    95     0096                     	;# 
    96     0097                     	;# 
    97     0099                     	;# 
    98     009A                     	;# 
    99     009B                     	;# 
   100     009B                     	;# 
   101     009C                     	;# 
   102     009D                     	;# 
   103     009E                     	;# 
   104     010C                     	;# 
   105     010D                     	;# 
   106     010E                     	;# 
   107     0116                     	;# 
   108     0117                     	;# 
   109     011D                     	;# 
   110     018C                     	;# 
   111     018D                     	;# 
   112     018E                     	;# 
   113     0191                     	;# 
   114     0191                     	;# 
   115     0192                     	;# 
   116     0193                     	;# 
   117     0193                     	;# 
   118     0194                     	;# 
   119     0195                     	;# 
   120     0196                     	;# 
   121     0197                     	;# 
   122     0199                     	;# 
   123     019A                     	;# 
   124     019B                     	;# 
   125     019B                     	;# 
   126     019B                     	;# 
   127     019B                     	;# 
   128     019C                     	;# 
   129     019C                     	;# 
   130     019D                     	;# 
   131     019E                     	;# 
   132     019F                     	;# 
   133     020D                     	;# 
   134     0210                     	;# 
   135     0211                     	;# 
   136     0211                     	;# 
   137     0212                     	;# 
   138     0212                     	;# 
   139     0213                     	;# 
   140     0213                     	;# 
   141     0214                     	;# 
   142     0214                     	;# 
   143     0215                     	;# 
   144     0215                     	;# 
   145     0215                     	;# 
   146     0216                     	;# 
   147     0216                     	;# 
   148     0217                     	;# 
   149     0217                     	;# 
   150     0291                     	;# 
   151     0291                     	;# 
   152     0292                     	;# 
   153     0293                     	;# 
   154     0298                     	;# 
   155     0298                     	;# 
   156     0299                     	;# 
   157     029A                     	;# 
   158     0394                     	;# 
   159     0395                     	;# 
   160     0396                     	;# 
   161     0FE4                     	;# 
   162     0FE5                     	;# 
   163     0FE6                     	;# 
   164     0FE7                     	;# 
   165     0FE8                     	;# 
   166     0FE9                     	;# 
   167     0FEA                     	;# 
   168     0FEB                     	;# 
   169     0FED                     	;# 
   170     0FEE                     	;# 
   171     0FEF                     	;# 
   172     0000                     	;# 
   173     0001                     	;# 
   174     0002                     	;# 
   175     0003                     	;# 
   176     0004                     	;# 
   177     0005                     	;# 
   178     0006                     	;# 
   179     0007                     	;# 
   180     0008                     	;# 
   181     0009                     	;# 
   182     000A                     	;# 
   183     000B                     	;# 
   184     000C                     	;# 
   185     000D                     	;# 
   186     000E                     	;# 
   187     0010                     	;# 
   188     0011                     	;# 
   189     0012                     	;# 
   190     0015                     	;# 
   191     0016                     	;# 
   192     0016                     	;# 
   193     0017                     	;# 
   194     0018                     	;# 
   195     0019                     	;# 
   196     001A                     	;# 
   197     001B                     	;# 
   198     001C                     	;# 
   199     008C                     	;# 
   200     008D                     	;# 
   201     008E                     	;# 
   202     0090                     	;# 
   203     0091                     	;# 
   204     0092                     	;# 
   205     0095                     	;# 
   206     0096                     	;# 
   207     0097                     	;# 
   208     0099                     	;# 
   209     009A                     	;# 
   210     009B                     	;# 
   211     009B                     	;# 
   212     009C                     	;# 
   213     009D                     	;# 
   214     009E                     	;# 
   215     010C                     	;# 
   216     010D                     	;# 
   217     010E                     	;# 
   218     0116                     	;# 
   219     0117                     	;# 
   220     011D                     	;# 
   221     018C                     	;# 
   222     018D                     	;# 
   223     018E                     	;# 
   224     0191                     	;# 
   225     0191                     	;# 
   226     0192                     	;# 
   227     0193                     	;# 
   228     0193                     	;# 
   229     0194                     	;# 
   230     0195                     	;# 
   231     0196                     	;# 
   232     0197                     	;# 
   233     0199                     	;# 
   234     019A                     	;# 
   235     019B                     	;# 
   236     019B                     	;# 
   237     019B                     	;# 
   238     019B                     	;# 
   239     019C                     	;# 
   240     019C                     	;# 
   241     019D                     	;# 
   242     019E                     	;# 
   243     019F                     	;# 
   244     020D                     	;# 
   245     0210                     	;# 
   246     0211                     	;# 
   247     0211                     	;# 
   248     0212                     	;# 
   249     0212                     	;# 
   250     0213                     	;# 
   251     0213                     	;# 
   252     0214                     	;# 
   253     0214                     	;# 
   254     0215                     	;# 
   255     0215                     	;# 
   256     0215                     	;# 
   257     0216                     	;# 
   258     0216                     	;# 
   259     0217                     	;# 
   260     0217                     	;# 
   261     0291                     	;# 
   262     0291                     	;# 
   263     0292                     	;# 
   264     0293                     	;# 
   265     0298                     	;# 
   266     0298                     	;# 
   267     0299                     	;# 
   268     029A                     	;# 
   269     0394                     	;# 
   270     0395                     	;# 
   271     0396                     	;# 
   272     0FE4                     	;# 
   273     0FE5                     	;# 
   274     0FE6                     	;# 
   275     0FE7                     	;# 
   276     0FE8                     	;# 
   277     0FE9                     	;# 
   278     0FEA                     	;# 
   279     0FEB                     	;# 
   280     0FED                     	;# 
   281     0FEE                     	;# 
   282     0FEF                     	;# 
   283     0000                     	;# 
   284     0001                     	;# 
   285     0002                     	;# 
   286     0003                     	;# 
   287     0004                     	;# 
   288     0005                     	;# 
   289     0006                     	;# 
   290     0007                     	;# 
   291     0008                     	;# 
   292     0009                     	;# 
   293     000A                     	;# 
   294     000B                     	;# 
   295     000C                     	;# 
   296     000D                     	;# 
   297     000E                     	;# 
   298     0010                     	;# 
   299     0011                     	;# 
   300     0012                     	;# 
   301     0015                     	;# 
   302     0016                     	;# 
   303     0016                     	;# 
   304     0017                     	;# 
   305     0018                     	;# 
   306     0019                     	;# 
   307     001A                     	;# 
   308     001B                     	;# 
   309     001C                     	;# 
   310     008C                     	;# 
   311     008D                     	;# 
   312     008E                     	;# 
   313     0090                     	;# 
   314     0091                     	;# 
   315     0092                     	;# 
   316     0095                     	;# 
   317     0096                     	;# 
   318     0097                     	;# 
   319     0099                     	;# 
   320     009A                     	;# 
   321     009B                     	;# 
   322     009B                     	;# 
   323     009C                     	;# 
   324     009D                     	;# 
   325     009E                     	;# 
   326     010C                     	;# 
   327     010D                     	;# 
   328     010E                     	;# 
   329     0116                     	;# 
   330     0117                     	;# 
   331     011D                     	;# 
   332     018C                     	;# 
   333     018D                     	;# 
   334     018E                     	;# 
   335     0191                     	;# 
   336     0191                     	;# 
   337     0192                     	;# 
   338     0193                     	;# 
   339     0193                     	;# 
   340     0194                     	;# 
   341     0195                     	;# 
   342     0196                     	;# 
   343     0197                     	;# 
   344     0199                     	;# 
   345     019A                     	;# 
   346     019B                     	;# 
   347     019B                     	;# 
   348     019B                     	;# 
   349     019B                     	;# 
   350     019C                     	;# 
   351     019C                     	;# 
   352     019D                     	;# 
   353     019E                     	;# 
   354     019F                     	;# 
   355     020D                     	;# 
   356     0210                     	;# 
   357     0211                     	;# 
   358     0211                     	;# 
   359     0212                     	;# 
   360     0212                     	;# 
   361     0213                     	;# 
   362     0213                     	;# 
   363     0214                     	;# 
   364     0214                     	;# 
   365     0215                     	;# 
   366     0215                     	;# 
   367     0215                     	;# 
   368     0216                     	;# 
   369     0216                     	;# 
   370     0217                     	;# 
   371     0217                     	;# 
   372     0291                     	;# 
   373     0291                     	;# 
   374     0292                     	;# 
   375     0293                     	;# 
   376     0298                     	;# 
   377     0298                     	;# 
   378     0299                     	;# 
   379     029A                     	;# 
   380     0394                     	;# 
   381     0395                     	;# 
   382     0396                     	;# 
   383     0FE4                     	;# 
   384     0FE5                     	;# 
   385     0FE6                     	;# 
   386     0FE7                     	;# 
   387     0FE8                     	;# 
   388     0FE9                     	;# 
   389     0FEA                     	;# 
   390     0FEB                     	;# 
   391     0FED                     	;# 
   392     0FEE                     	;# 
   393     0FEF                     	;# 
   394     0000                     	;# 
   395     0001                     	;# 
   396     0002                     	;# 
   397     0003                     	;# 
   398     0004                     	;# 
   399     0005                     	;# 
   400     0006                     	;# 
   401     0007                     	;# 
   402     0008                     	;# 
   403     0009                     	;# 
   404     000A                     	;# 
   405     000B                     	;# 
   406     000C                     	;# 
   407     000D                     	;# 
   408     000E                     	;# 
   409     0010                     	;# 
   410     0011                     	;# 
   411     0012                     	;# 
   412     0015                     	;# 
   413     0016                     	;# 
   414     0016                     	;# 
   415     0017                     	;# 
   416     0018                     	;# 
   417     0019                     	;# 
   418     001A                     	;# 
   419     001B                     	;# 
   420     001C                     	;# 
   421     008C                     	;# 
   422     008D                     	;# 
   423     008E                     	;# 
   424     0090                     	;# 
   425     0091                     	;# 
   426     0092                     	;# 
   427     0095                     	;# 
   428     0096                     	;# 
   429     0097                     	;# 
   430     0099                     	;# 
   431     009A                     	;# 
   432     009B                     	;# 
   433     009B                     	;# 
   434     009C                     	;# 
   435     009D                     	;# 
   436     009E                     	;# 
   437     010C                     	;# 
   438     010D                     	;# 
   439     010E                     	;# 
   440     0116                     	;# 
   441     0117                     	;# 
   442     011D                     	;# 
   443     018C                     	;# 
   444     018D                     	;# 
   445     018E                     	;# 
   446     0191                     	;# 
   447     0191                     	;# 
   448     0192                     	;# 
   449     0193                     	;# 
   450     0193                     	;# 
   451     0194                     	;# 
   452     0195                     	;# 
   453     0196                     	;# 
   454     0197                     	;# 
   455     0199                     	;# 
   456     019A                     	;# 
   457     019B                     	;# 
   458     019B                     	;# 
   459     019B                     	;# 
   460     019B                     	;# 
   461     019C                     	;# 
   462     019C                     	;# 
   463     019D                     	;# 
   464     019E                     	;# 
   465     019F                     	;# 
   466     020D                     	;# 
   467     0210                     	;# 
   468     0211                     	;# 
   469     0211                     	;# 
   470     0212                     	;# 
   471     0212                     	;# 
   472     0213                     	;# 
   473     0213                     	;# 
   474     0214                     	;# 
   475     0214                     	;# 
   476     0215                     	;# 
   477     0215                     	;# 
   478     0215                     	;# 
   479     0216                     	;# 
   480     0216                     	;# 
   481     0217                     	;# 
   482     0217                     	;# 
   483     0291                     	;# 
   484     0291                     	;# 
   485     0292                     	;# 
   486     0293                     	;# 
   487     0298                     	;# 
   488     0298                     	;# 
   489     0299                     	;# 
   490     029A                     	;# 
   491     0394                     	;# 
   492     0395                     	;# 
   493     0396                     	;# 
   494     0FE4                     	;# 
   495     0FE5                     	;# 
   496     0FE6                     	;# 
   497     0FE7                     	;# 
   498     0FE8                     	;# 
   499     0FE9                     	;# 
   500     0FEA                     	;# 
   501     0FEB                     	;# 
   502     0FED                     	;# 
   503     0FEE                     	;# 
   504     0FEF                     	;# 
   505     0000                     	;# 
   506     0001                     	;# 
   507     0002                     	;# 
   508     0003                     	;# 
   509     0004                     	;# 
   510     0005                     	;# 
   511     0006                     	;# 
   512     0007                     	;# 
   513     0008                     	;# 
   514     0009                     	;# 
   515     000A                     	;# 
   516     000B                     	;# 
   517     000C                     	;# 
   518     000D                     	;# 
   519     000E                     	;# 
   520     0010                     	;# 
   521     0011                     	;# 
   522     0012                     	;# 
   523     0015                     	;# 
   524     0016                     	;# 
   525     0016                     	;# 
   526     0017                     	;# 
   527     0018                     	;# 
   528     0019                     	;# 
   529     001A                     	;# 
   530     001B                     	;# 
   531     001C                     	;# 
   532     008C                     	;# 
   533     008D                     	;# 
   534     008E                     	;# 
   535     0090                     	;# 
   536     0091                     	;# 
   537     0092                     	;# 
   538     0095                     	;# 
   539     0096                     	;# 
   540     0097                     	;# 
   541     0099                     	;# 
   542     009A                     	;# 
   543     009B                     	;# 
   544     009B                     	;# 
   545     009C                     	;# 
   546     009D                     	;# 
   547     009E                     	;# 
   548     010C                     	;# 
   549     010D                     	;# 
   550     010E                     	;# 
   551     0116                     	;# 
   552     0117                     	;# 
   553     011D                     	;# 
   554     018C                     	;# 
   555     018D                     	;# 
   556     018E                     	;# 
   557     0191                     	;# 
   558     0191                     	;# 
   559     0192                     	;# 
   560     0193                     	;# 
   561     0193                     	;# 
   562     0194                     	;# 
   563     0195                     	;# 
   564     0196                     	;# 
   565     0197                     	;# 
   566     0199                     	;# 
   567     019A                     	;# 
   568     019B                     	;# 
   569     019B                     	;# 
   570     019B                     	;# 
   571     019B                     	;# 
   572     019C                     	;# 
   573     019C                     	;# 
   574     019D                     	;# 
   575     019E                     	;# 
   576     019F                     	;# 
   577     020D                     	;# 
   578     0210                     	;# 
   579     0211                     	;# 
   580     0211                     	;# 
   581     0212                     	;# 
   582     0212                     	;# 
   583     0213                     	;# 
   584     0213                     	;# 
   585     0214                     	;# 
   586     0214                     	;# 
   587     0215                     	;# 
   588     0215                     	;# 
   589     0215                     	;# 
   590     0216                     	;# 
   591     0216                     	;# 
   592     0217                     	;# 
   593     0217                     	;# 
   594     0291                     	;# 
   595     0291                     	;# 
   596     0292                     	;# 
   597     0293                     	;# 
   598     0298                     	;# 
   599     0298                     	;# 
   600     0299                     	;# 
   601     029A                     	;# 
   602     0394                     	;# 
   603     0395                     	;# 
   604     0396                     	;# 
   605     0FE4                     	;# 
   606     0FE5                     	;# 
   607     0FE6                     	;# 
   608     0FE7                     	;# 
   609     0FE8                     	;# 
   610     0FE9                     	;# 
   611     0FEA                     	;# 
   612     0FEB                     	;# 
   613     0FED                     	;# 
   614     0FEE                     	;# 
   615     0FEF                     	;# 
   616     0000                     	;# 
   617     0001                     	;# 
   618     0002                     	;# 
   619     0003                     	;# 
   620     0004                     	;# 
   621     0005                     	;# 
   622     0006                     	;# 
   623     0007                     	;# 
   624     0008                     	;# 
   625     0009                     	;# 
   626     000A                     	;# 
   627     000B                     	;# 
   628     000C                     	;# 
   629     000D                     	;# 
   630     000E                     	;# 
   631     0010                     	;# 
   632     0011                     	;# 
   633     0012                     	;# 
   634     0015                     	;# 
   635     0016                     	;# 
   636     0016                     	;# 
   637     0017                     	;# 
   638     0018                     	;# 
   639     0019                     	;# 
   640     001A                     	;# 
   641     001B                     	;# 
   642     001C                     	;# 
   643     008C                     	;# 
   644     008D                     	;# 
   645     008E                     	;# 
   646     0090                     	;# 
   647     0091                     	;# 
   648     0092                     	;# 
   649     0095                     	;# 
   650     0096                     	;# 
   651     0097                     	;# 
   652     0099                     	;# 
   653     009A                     	;# 
   654     009B                     	;# 
   655     009B                     	;# 
   656     009C                     	;# 
   657     009D                     	;# 
   658     009E                     	;# 
   659     010C                     	;# 
   660     010D                     	;# 
   661     010E                     	;# 
   662     0116                     	;# 
   663     0117                     	;# 
   664     011D                     	;# 
   665     018C                     	;# 
   666     018D                     	;# 
   667     018E                     	;# 
   668     0191                     	;# 
   669     0191                     	;# 
   670     0192                     	;# 
   671     0193                     	;# 
   672     0193                     	;# 
   673     0194                     	;# 
   674     0195                     	;# 
   675     0196                     	;# 
   676     0197                     	;# 
   677     0199                     	;# 
   678     019A                     	;# 
   679     019B                     	;# 
   680     019B                     	;# 
   681     019B                     	;# 
   682     019B                     	;# 
   683     019C                     	;# 
   684     019C                     	;# 
   685     019D                     	;# 
   686     019E                     	;# 
   687     019F                     	;# 
   688     020D                     	;# 
   689     0210                     	;# 
   690     0211                     	;# 
   691     0211                     	;# 
   692     0212                     	;# 
   693     0212                     	;# 
   694     0213                     	;# 
   695     0213                     	;# 
   696     0214                     	;# 
   697     0214                     	;# 
   698     0215                     	;# 
   699     0215                     	;# 
   700     0215                     	;# 
   701     0216                     	;# 
   702     0216                     	;# 
   703     0217                     	;# 
   704     0217                     	;# 
   705     0291                     	;# 
   706     0291                     	;# 
   707     0292                     	;# 
   708     0293                     	;# 
   709     0298                     	;# 
   710     0298                     	;# 
   711     0299                     	;# 
   712     029A                     	;# 
   713     0394                     	;# 
   714     0395                     	;# 
   715     0396                     	;# 
   716     0FE4                     	;# 
   717     0FE5                     	;# 
   718     0FE6                     	;# 
   719     0FE7                     	;# 
   720     0FE8                     	;# 
   721     0FE9                     	;# 
   722     0FEA                     	;# 
   723     0FEB                     	;# 
   724     0FED                     	;# 
   725     0FEE                     	;# 
   726     0FEF                     	;# 
   727                           
   728 ;; Function _INT_DefaultInterruptHandler is unused but had its address taken
   729     0000                     
   730 ;; Function _Timer0_DefaultOverflowCallback is unused but had its address taken
   731     0000                     
   732 ;; Function _Timer0_Tasks is unused but had its address taken
   733     0000                     
   734 ;; Function _Timer0_OverflowCallback is unused but had its address taken
   735     0000                     
   736                           	psect	stringtext1
   737     0800                     __pstringtext1:
   738     0800                     _Timer0:
   739     0800  3415               	retlw	low _Timer0_Initialize
   740     0801  3406               	retlw	high _Timer0_Initialize
   741     0802  3400               	retlw	0
   742     0803  3400               	retlw	0
   743     0804  3400               	retlw	0
   744     0805  3400               	retlw	0
   745     0806  34E7               	retlw	low _Timer0_Write
   746     0807  3405               	retlw	high _Timer0_Write
   747     0808  34F7               	retlw	low _Timer0_OverflowCallbackRegister
   748     0809  3405               	retlw	high _Timer0_OverflowCallbackRegister
   749     080A  3400               	retlw	0
   750     080B  3400               	retlw	0
   751     080C                     __end_of_Timer0:
   752                           
   753                           	psect	stringtext2
   754     080C                     __pstringtext2:
   755     080C                     _SEGMENT_MAP:
   756     080C  343F               	retlw	63
   757     080D  3406               	retlw	6
   758     080E  345B               	retlw	91
   759     080F  344F               	retlw	79
   760     0810  3466               	retlw	102
   761     0811  346D               	retlw	109
   762     0812  347D               	retlw	125
   763     0813  3407               	retlw	7
   764     0814  347F               	retlw	127
   765     0815  346F               	retlw	111
   766     0816                     __end_of_SEGMENT_MAP:
   767                           
   768                           	psect	nvBANK0
   769     0028                     __pnvBANK0:
   770     0028                     _Timer0_OverflowCallback@tmr0$F279:
   771     0028                     	ds	2
   772     002A                     _INT_InterruptHandler:
   773     002A                     	ds	2
   774     000C                     _PORTAbits	set	12
   775     0015                     _TMR0	set	21
   776     000B                     _INTCONbits	set	11
   777     0095                     _OPTION_REG	set	149
   778     0099                     _OSCCON	set	153
   779     0095                     _OPTION_REGbits	set	149
   780     0090                     _TRISE	set	144
   781     008E                     _TRISC	set	142
   782     008D                     _TRISB	set	141
   783     008C                     _TRISA	set	140
   784     010D                     _LATBbits	set	269
   785     0116                     _BORCON	set	278
   786     010E                     _LATC	set	270
   787     010D                     _LATB	set	269
   788     010C                     _LATA	set	268
   789     018E                     _ANSELC	set	398
   790     018D                     _ANSELB	set	397
   791     018C                     _ANSELA	set	396
   792     0210                     _WPUE	set	528
   793     020D                     _WPUB	set	525
   794     0396                     _IOCBF	set	918
   795     0395                     _IOCBN	set	917
   796     0394                     _IOCBP	set	916
   797                           
   798                           	psect	cinit
   799     07F2                     start_initialization:	
   800                           ; #config settings
   801                           
   802     07F2                     __initialization:
   803                           
   804                           ; Clear objects allocated to COMMON
   805     07F2  01FC               	clrf	__pbssCOMMON& (0+127)
   806     07F3  01FD               	clrf	(__pbssCOMMON+1)& (0+127)
   807                           
   808                           ; Clear objects allocated to BANK0
   809     07F4  0020               	movlb	0	; select bank0
   810     07F5  01A0               	clrf	__pbssBANK0& (0+127)
   811     07F6  01A1               	clrf	(__pbssBANK0+1)& (0+127)
   812     07F7  01A2               	clrf	(__pbssBANK0+2)& (0+127)
   813     07F8  01A3               	clrf	(__pbssBANK0+3)& (0+127)
   814     07F9  01A4               	clrf	(__pbssBANK0+4)& (0+127)
   815     07FA  01A5               	clrf	(__pbssBANK0+5)& (0+127)
   816     07FB  01A6               	clrf	(__pbssBANK0+6)& (0+127)
   817     07FC  01A7               	clrf	(__pbssBANK0+7)& (0+127)
   818     07FD                     end_of_initialization:	
   819                           ;End of C runtime variable initialization code
   820                           
   821     07FD                     __end_of__initialization:
   822     07FD  0020               	movlb	0
   823     07FE  3186  2E8B         	ljmp	_main	;jump to C main() function
   824                           
   825                           	psect	bssCOMMON
   826     007C                     __pbssCOMMON:
   827     007C                     _timer_running:
   828     007C                     	ds	1
   829     007D                     _minutes:
   830     007D                     	ds	1
   831                           
   832                           	psect	bssBANK0
   833     0020                     __pbssBANK0:
   834     0020                     _digit:
   835     0020                     	ds	4
   836     0024                     Timer0_OverflowCallback@ms_count:
   837     0024                     	ds	2
   838     0026                     _seconds:
   839     0026                     	ds	1
   840     0027                     _timer0ReloadVal:
   841     0027                     	ds	1
   842                           
   843                           	psect	cstackCOMMON
   844     0070                     __pcstackCOMMON:
   845     0070                     ?_CLOCK_Initialize:
   846     0070                     ??_CLOCK_Initialize:	
   847                           ; 1 bytes @ 0x0
   848                           
   849     0070                     ?_PIN_MANAGER_Initialize:	
   850                           ; 1 bytes @ 0x0
   851                           
   852     0070                     ??_PIN_MANAGER_Initialize:	
   853                           ; 1 bytes @ 0x0
   854                           
   855     0070                     ?_Timer0_Initialize:	
   856                           ; 1 bytes @ 0x0
   857                           
   858     0070                     ?_INTERRUPT_Initialize:	
   859                           ; 1 bytes @ 0x0
   860                           
   861     0070                     ?_INT_SetInterruptHandler:	
   862                           ; 1 bytes @ 0x0
   863                           
   864     0070                     ?_Timer0_Write:	
   865                           ; 1 bytes @ 0x0
   866                           
   867     0070                     ?_Timer0_OverflowCallbackRegister:	
   868                           ; 1 bytes @ 0x0
   869                           
   870     0070                     ?_SYSTEM_Initialize:	
   871                           ; 1 bytes @ 0x0
   872                           
   873     0070                     ?_update_display:	
   874                           ; 1 bytes @ 0x0
   875                           
   876     0070                     ?_handle_buttons:	
   877                           ; 1 bytes @ 0x0
   878                           
   879     0070                     ??_handle_buttons:	
   880                           ; 1 bytes @ 0x0
   881                           
   882     0070                     ?_main:	
   883                           ; 1 bytes @ 0x0
   884                           
   885     0070                     ?___awdiv:	
   886                           ; 2 bytes @ 0x0
   887                           
   888     0070                     ?___awmod:	
   889                           ; 2 bytes @ 0x0
   890                           
   891     0070                     INT_SetInterruptHandler@InterruptHandler:	
   892                           ; 2 bytes @ 0x0
   893                           
   894     0070                     Timer0_Write@timerVal:	
   895                           ; 2 bytes @ 0x0
   896                           
   897     0070                     Timer0_OverflowCallbackRegister@CallbackHandler:	
   898                           ; 2 bytes @ 0x0
   899                           
   900     0070                     ___awdiv@divisor:	
   901                           ; 2 bytes @ 0x0
   902                           
   903     0070                     ___awmod@divisor:	
   904                           ; 2 bytes @ 0x0
   905                           
   906                           
   907                           ; 2 bytes @ 0x0
   908     0070                     	ds	2
   909     0072                     ??_Timer0_Initialize:
   910     0072                     ??_INTERRUPT_Initialize:	
   911                           ; 1 bytes @ 0x2
   912                           
   913     0072                     ??_INT_SetInterruptHandler:	
   914                           ; 1 bytes @ 0x2
   915                           
   916     0072                     ??_Timer0_Write:	
   917                           ; 1 bytes @ 0x2
   918                           
   919     0072                     ??_Timer0_OverflowCallbackRegister:	
   920                           ; 1 bytes @ 0x2
   921                           
   922     0072                     ??_SYSTEM_Initialize:	
   923                           ; 1 bytes @ 0x2
   924                           
   925     0072                     ___awdiv@dividend:	
   926                           ; 1 bytes @ 0x2
   927                           
   928     0072                     ___awmod@dividend:	
   929                           ; 2 bytes @ 0x2
   930                           
   931                           
   932                           ; 2 bytes @ 0x2
   933     0072                     	ds	2
   934     0074                     ??___awdiv:
   935     0074                     ??___awmod:	
   936                           ; 1 bytes @ 0x4
   937                           
   938                           
   939                           ; 1 bytes @ 0x4
   940     0074                     	ds	1
   941     0075                     ___awdiv@counter:
   942     0075                     ___awmod@counter:	
   943                           ; 1 bytes @ 0x5
   944                           
   945                           
   946                           ; 1 bytes @ 0x5
   947     0075                     	ds	1
   948     0076                     ___awdiv@sign:
   949     0076                     ___awmod@sign:	
   950                           ; 1 bytes @ 0x6
   951                           
   952                           
   953                           ; 1 bytes @ 0x6
   954     0076                     	ds	1
   955     0077                     ___awdiv@quotient:
   956                           
   957                           ; 2 bytes @ 0x7
   958     0077                     	ds	2
   959     0079                     ??_update_display:
   960                           
   961                           ; 1 bytes @ 0x9
   962     0079                     	ds	2
   963     007B                     ??_main:
   964                           
   965                           ; 1 bytes @ 0xB
   966     007B                     	ds	1
   967                           
   968                           	psect	maintext
   969     068B                     __pmaintext:	
   970 ;;
   971 ;;Main: autosize = 0, tempsize = 1, incstack = 0, save=0
   972 ;;
   973 ;; *************** function _main *****************
   974 ;; Defined at:
   975 ;;		line 131 in file "main.c"
   976 ;; Parameters:    Size  Location     Type
   977 ;;		None
   978 ;; Auto vars:     Size  Location     Type
   979 ;;		None
   980 ;; Return value:  Size  Location     Type
   981 ;;                  2  198[None  ] int 
   982 ;; Registers used:
   983 ;;		wreg, status,2, status,0, pclath, cstack
   984 ;; Tracked objects:
   985 ;;		On entry : B1F/0
   986 ;;		On exit  : 0/0
   987 ;;		Unchanged: 0/0
   988 ;; Data sizes:     COMMON   BANK0   BANK1   BANK2   BANK3   BANK4   BANK5   BANK6   BANK7   BANK8   BANK9  BANK10  BANK1
      +1  BANK12
   989 ;;      Params:         0       0       0       0       0       0       0       0       0       0       0       0       
      +0       0
   990 ;;      Locals:         0       0       0       0       0       0       0       0       0       0       0       0       
      +0       0
   991 ;;      Temps:          1       0       0       0       0       0       0       0       0       0       0       0       
      +0       0
   992 ;;      Totals:         1       0       0       0       0       0       0       0       0       0       0       0       
      +0       0
   993 ;;Total ram usage:        1 bytes
   994 ;; Hardware stack levels required when called: 3
   995 ;; This function calls:
   996 ;;		_SYSTEM_Initialize
   997 ;;		_Timer0_OverflowCallbackRegister
   998 ;;		_Timer0_Write
   999 ;;		_handle_buttons
  1000 ;;		_update_display
  1001 ;; This function is called by:
  1002 ;;		Startup code after reset
  1003 ;; This function uses a non-reentrant model
  1004 ;;
  1005                           
  1006     068B                     _main:	
  1007                           ;psect for function _main
  1008                           
  1009     068B                     l1122:	
  1010                           ;incstack = 0
  1011                           ; Regs used in _main: [wreg+status,2+status,0+pclath+cstack]
  1012                           
  1013                           
  1014                           ;main.c: 132:     SYSTEM_Initialize();
  1015     068B  3186  2608  3186   	fcall	_SYSTEM_Initialize
  1016     068E                     l1124:
  1017                           
  1018                           ;main.c: 135:     (INTCONbits.GIE = 1);
  1019     068E  178B               	bsf	11,7	;volatile
  1020     068F                     l1126:
  1021                           
  1022                           ;main.c: 138:     (INTCONbits.PEIE = 1);
  1023     068F  170B               	bsf	11,6	;volatile
  1024                           
  1025                           ;main.c: 141:     Timer0_Write(120);
  1026     0690  3078               	movlw	120
  1027     0691  00F0               	movwf	Timer0_Write@timerVal
  1028     0692  3000               	movlw	0
  1029     0693  00F1               	movwf	Timer0_Write@timerVal+1
  1030     0694  3185  25E7  3186   	fcall	_Timer0_Write
  1031                           
  1032                           ;main.c: 144:     Timer0_OverflowCallbackRegister(Timer0_OverflowCallback);
  1033     0697  3000               	movlw	0
  1034     0698  00F0               	movwf	Timer0_OverflowCallbackRegister@CallbackHandler
  1035     0699  3000               	movlw	0
  1036     069A  00F1               	movwf	Timer0_OverflowCallbackRegister@CallbackHandler+1
  1037     069B  3185  25F7  3186   	fcall	_Timer0_OverflowCallbackRegister
  1038     069E                     l199:	
  1039                           ;main.c: 146:     while(1) {
  1040                           
  1041                           
  1042                           ;main.c: 147:         update_display();
  1043     069E  3186  2646  3186   	fcall	_update_display
  1044                           
  1045                           ;main.c: 148:         handle_buttons();
  1046     06A1  3187  278E  3186   	fcall	_handle_buttons
  1047     06A4                     l1128:
  1048                           
  1049                           ;main.c: 151:         LATBbits.LATB0 = 1; LATC = 1; _delay((unsigned long)((1)*(20000000
      +                          /4000.0))); LATBbits.LATB0 = 0;
  1050     06A4  0022               	movlb	2	; select bank2
  1051     06A5  140D               	bsf	13,0	;volatile
  1052     06A6                     l1130:
  1053     06A6  3001               	movlw	1
  1054     06A7  008E               	movwf	14	;volatile
  1055     06A8                     l1132:
  1056     06A8  3007               	movlw	7
  1057     06A9  00FB               	movwf	??_main
  1058     06AA  307D               	movlw	125
  1059     06AB                     u657:
  1060     06AB  0B89               	decfsz	9,f
  1061     06AC  2EAB               	goto	u657
  1062     06AD  0BFB               	decfsz	??_main,f
  1063     06AE  2EAB               	goto	u657
  1064     06AF  0000               	nop
  1065     06B0                     l1134:
  1066     06B0  0022               	movlb	2	; select bank2
  1067     06B1  100D               	bcf	13,0	;volatile
  1068     06B2                     l1136:
  1069                           
  1070                           ;main.c: 152:         LATBbits.LATB1 = 1; LATC = 2; _delay((unsigned long)((1)*(20000000
      +                          /4000.0))); LATBbits.LATB1 = 0;
  1071     06B2  148D               	bsf	13,1	;volatile
  1072     06B3                     l1138:
  1073     06B3  3002               	movlw	2
  1074     06B4  008E               	movwf	14	;volatile
  1075     06B5                     l1140:
  1076     06B5  3007               	movlw	7
  1077     06B6  00FB               	movwf	??_main
  1078     06B7  307D               	movlw	125
  1079     06B8                     u667:
  1080     06B8  0B89               	decfsz	9,f
  1081     06B9  2EB8               	goto	u667
  1082     06BA  0BFB               	decfsz	??_main,f
  1083     06BB  2EB8               	goto	u667
  1084     06BC  0000               	nop
  1085     06BD                     l1142:
  1086     06BD  0022               	movlb	2	; select bank2
  1087     06BE  108D               	bcf	13,1	;volatile
  1088     06BF                     l1144:
  1089                           
  1090                           ;main.c: 153:         LATBbits.LATB2 = 1; LATC = 3; _delay((unsigned long)((1)*(20000000
      +                          /4000.0))); LATBbits.LATB2 = 0;
  1091     06BF  150D               	bsf	13,2	;volatile
  1092     06C0                     l1146:
  1093     06C0  3003               	movlw	3
  1094     06C1  008E               	movwf	14	;volatile
  1095     06C2                     l1148:
  1096     06C2  3007               	movlw	7
  1097     06C3  00FB               	movwf	??_main
  1098     06C4  307D               	movlw	125
  1099     06C5                     u677:
  1100     06C5  0B89               	decfsz	9,f
  1101     06C6  2EC5               	goto	u677
  1102     06C7  0BFB               	decfsz	??_main,f
  1103     06C8  2EC5               	goto	u677
  1104     06C9  0000               	nop
  1105     06CA                     l1150:
  1106     06CA  0022               	movlb	2	; select bank2
  1107     06CB  110D               	bcf	13,2	;volatile
  1108     06CC                     l1152:
  1109                           
  1110                           ;main.c: 154:         LATBbits.LATB3 = 1; LATC = 4; _delay((unsigned long)((1)*(20000000
      +                          /4000.0))); LATBbits.LATB3 = 0;
  1111     06CC  158D               	bsf	13,3	;volatile
  1112     06CD                     l1154:
  1113     06CD  3004               	movlw	4
  1114     06CE  008E               	movwf	14	;volatile
  1115     06CF                     l1156:
  1116     06CF  3007               	movlw	7
  1117     06D0  00FB               	movwf	??_main
  1118     06D1  307D               	movlw	125
  1119     06D2                     u687:
  1120     06D2  0B89               	decfsz	9,f
  1121     06D3  2ED2               	goto	u687
  1122     06D4  0BFB               	decfsz	??_main,f
  1123     06D5  2ED2               	goto	u687
  1124     06D6  0000               	nop
  1125     06D7                     l1158:
  1126     06D7  0022               	movlb	2	; select bank2
  1127     06D8  118D               	bcf	13,3	;volatile
  1128     06D9  2E9E               	goto	l199
  1129     06DA  3180  2802         	ljmp	start
  1130     06DC                     __end_of_main:
  1131                           
  1132                           	psect	text1
  1133     0646                     __ptext1:	
  1134 ;; *************** function _update_display *****************
  1135 ;; Defined at:
  1136 ;;		line 61 in file "main.c"
  1137 ;; Parameters:    Size  Location     Type
  1138 ;;		None
  1139 ;; Auto vars:     Size  Location     Type
  1140 ;;		None
  1141 ;; Return value:  Size  Location     Type
  1142 ;;                  1    wreg      void 
  1143 ;; Registers used:
  1144 ;;		wreg, status,2, status,0, pclath, cstack
  1145 ;; Tracked objects:
  1146 ;;		On entry : 0/0
  1147 ;;		On exit  : 0/0
  1148 ;;		Unchanged: 0/0
  1149 ;; Data sizes:     COMMON   BANK0   BANK1   BANK2   BANK3   BANK4   BANK5   BANK6   BANK7   BANK8   BANK9  BANK10  BANK1
      +1  BANK12
  1150 ;;      Params:         0       0       0       0       0       0       0       0       0       0       0       0       
      +0       0
  1151 ;;      Locals:         0       0       0       0       0       0       0       0       0       0       0       0       
      +0       0
  1152 ;;      Temps:          2       0       0       0       0       0       0       0       0       0       0       0       
      +0       0
  1153 ;;      Totals:         2       0       0       0       0       0       0       0       0       0       0       0       
      +0       0
  1154 ;;Total ram usage:        2 bytes
  1155 ;; Hardware stack levels used: 1
  1156 ;; Hardware stack levels required when called: 1
  1157 ;; This function calls:
  1158 ;;		___awdiv
  1159 ;;		___awmod
  1160 ;; This function is called by:
  1161 ;;		_main
  1162 ;; This function uses a non-reentrant model
  1163 ;;
  1164                           
  1165     0646                     _update_display:	
  1166                           ;psect for function _update_display
  1167                           
  1168     0646                     l1082:	
  1169                           ;incstack = 0
  1170                           ; Regs used in _update_display: [wreg+status,2+status,0+pclath+cstack]
  1171                           
  1172                           
  1173                           ;main.c: 62:     digit[0] = minutes / 10;
  1174     0646  300A               	movlw	10
  1175     0647  00F0               	movwf	___awdiv@divisor
  1176     0648  3000               	movlw	0
  1177     0649  00F1               	movwf	___awdiv@divisor+1
  1178     064A  087D               	movf	_minutes,w
  1179     064B  00F9               	movwf	??_update_display
  1180     064C  01FA               	clrf	??_update_display+1
  1181     064D  0879               	movf	??_update_display,w
  1182     064E  00F2               	movwf	___awdiv@dividend
  1183     064F  087A               	movf	??_update_display+1,w
  1184     0650  00F3               	movwf	___awdiv@dividend+1
  1185     0651  3187  272F  3186   	fcall	___awdiv
  1186     0654  0870               	movf	?___awdiv,w
  1187     0655  0020               	movlb	0	; select bank0
  1188     0656  00A0               	movwf	_digit
  1189                           
  1190                           ;main.c: 63:     digit[1] = minutes % 10;
  1191     0657  300A               	movlw	10
  1192     0658  00F0               	movwf	___awmod@divisor
  1193     0659  3000               	movlw	0
  1194     065A  00F1               	movwf	___awmod@divisor+1
  1195     065B  087D               	movf	_minutes,w
  1196     065C  00F9               	movwf	??_update_display
  1197     065D  01FA               	clrf	??_update_display+1
  1198     065E  0879               	movf	??_update_display,w
  1199     065F  00F2               	movwf	___awmod@dividend
  1200     0660  087A               	movf	??_update_display+1,w
  1201     0661  00F3               	movwf	___awmod@dividend+1
  1202     0662  3186  26DC  3186   	fcall	___awmod
  1203     0665  0870               	movf	?___awmod,w
  1204     0666  0020               	movlb	0	; select bank0
  1205     0667  00A1               	movwf	_digit+1
  1206                           
  1207                           ;main.c: 64:     digit[2] = seconds / 10;
  1208     0668  300A               	movlw	10
  1209     0669  00F0               	movwf	___awdiv@divisor
  1210     066A  3000               	movlw	0
  1211     066B  00F1               	movwf	___awdiv@divisor+1
  1212     066C  0826               	movf	_seconds,w
  1213     066D  00F9               	movwf	??_update_display
  1214     066E  01FA               	clrf	??_update_display+1
  1215     066F  0879               	movf	??_update_display,w
  1216     0670  00F2               	movwf	___awdiv@dividend
  1217     0671  087A               	movf	??_update_display+1,w
  1218     0672  00F3               	movwf	___awdiv@dividend+1
  1219     0673  3187  272F  3186   	fcall	___awdiv
  1220     0676  0870               	movf	?___awdiv,w
  1221     0677  0020               	movlb	0	; select bank0
  1222     0678  00A2               	movwf	_digit+2
  1223                           
  1224                           ;main.c: 65:     digit[3] = seconds % 10;
  1225     0679  300A               	movlw	10
  1226     067A  00F0               	movwf	___awmod@divisor
  1227     067B  3000               	movlw	0
  1228     067C  00F1               	movwf	___awmod@divisor+1
  1229     067D  0826               	movf	_seconds,w
  1230     067E  00F9               	movwf	??_update_display
  1231     067F  01FA               	clrf	??_update_display+1
  1232     0680  0879               	movf	??_update_display,w
  1233     0681  00F2               	movwf	___awmod@dividend
  1234     0682  087A               	movf	??_update_display+1,w
  1235     0683  00F3               	movwf	___awmod@dividend+1
  1236     0684  3186  26DC  3186   	fcall	___awmod
  1237     0687  0870               	movf	?___awmod,w
  1238     0688  0020               	movlb	0	; select bank0
  1239     0689  00A3               	movwf	_digit+3
  1240     068A                     l162:
  1241     068A  0008               	return
  1242     068B                     __end_of_update_display:
  1243                           
  1244                           	psect	text2
  1245     06DC                     __ptext2:	
  1246 ;; *************** function ___awmod *****************
  1247 ;; Defined at:
  1248 ;;		line 5 in file "C:\Program Files\Microchip\xc8\v2.46\pic\sources\c99\common\awmod.c"
  1249 ;; Parameters:    Size  Location     Type
  1250 ;;  divisor         2    0[COMMON] int 
  1251 ;;  dividend        2    2[COMMON] int 
  1252 ;; Auto vars:     Size  Location     Type
  1253 ;;  sign            1    6[COMMON] unsigned char 
  1254 ;;  counter         1    5[COMMON] unsigned char 
  1255 ;; Return value:  Size  Location     Type
  1256 ;;                  2    0[COMMON] int 
  1257 ;; Registers used:
  1258 ;;		wreg, status,2, status,0
  1259 ;; Tracked objects:
  1260 ;;		On entry : 0/0
  1261 ;;		On exit  : 0/0
  1262 ;;		Unchanged: 0/0
  1263 ;; Data sizes:     COMMON   BANK0   BANK1   BANK2   BANK3   BANK4   BANK5   BANK6   BANK7   BANK8   BANK9  BANK10  BANK1
      +1  BANK12
  1264 ;;      Params:         4       0       0       0       0       0       0       0       0       0       0       0       
      +0       0
  1265 ;;      Locals:         2       0       0       0       0       0       0       0       0       0       0       0       
      +0       0
  1266 ;;      Temps:          1       0       0       0       0       0       0       0       0       0       0       0       
      +0       0
  1267 ;;      Totals:         7       0       0       0       0       0       0       0       0       0       0       0       
      +0       0
  1268 ;;Total ram usage:        7 bytes
  1269 ;; Hardware stack levels used: 1
  1270 ;; This function calls:
  1271 ;;		Nothing
  1272 ;; This function is called by:
  1273 ;;		_update_display
  1274 ;; This function uses a non-reentrant model
  1275 ;;
  1276                           
  1277     06DC                     ___awmod:	
  1278                           ;psect for function ___awmod
  1279                           
  1280     06DC                     l1040:	
  1281                           ;incstack = 0
  1282                           ; Regs used in ___awmod: [wreg+status,2+status,0]
  1283                           
  1284     06DC  01F6               	clrf	___awmod@sign
  1285     06DD                     l1042:
  1286     06DD  1FF3               	btfss	___awmod@dividend+1,7
  1287     06DE  2EE0               	goto	u501
  1288     06DF  2EE1               	goto	u500
  1289     06E0                     u501:
  1290     06E0  2EE8               	goto	l1048
  1291     06E1                     u500:
  1292     06E1                     l1044:
  1293     06E1  09F2               	comf	___awmod@dividend,f
  1294     06E2  09F3               	comf	___awmod@dividend+1,f
  1295     06E3  0AF2               	incf	___awmod@dividend,f
  1296     06E4  1903               	skipnz
  1297     06E5  0AF3               	incf	___awmod@dividend+1,f
  1298     06E6                     l1046:
  1299     06E6  01F6               	clrf	___awmod@sign
  1300     06E7  0AF6               	incf	___awmod@sign,f
  1301     06E8                     l1048:
  1302     06E8  1FF1               	btfss	___awmod@divisor+1,7
  1303     06E9  2EEB               	goto	u511
  1304     06EA  2EEC               	goto	u510
  1305     06EB                     u511:
  1306     06EB  2EF1               	goto	l1052
  1307     06EC                     u510:
  1308     06EC                     l1050:
  1309     06EC  09F0               	comf	___awmod@divisor,f
  1310     06ED  09F1               	comf	___awmod@divisor+1,f
  1311     06EE  0AF0               	incf	___awmod@divisor,f
  1312     06EF  1903               	skipnz
  1313     06F0  0AF1               	incf	___awmod@divisor+1,f
  1314     06F1                     l1052:
  1315     06F1  0870               	movf	___awmod@divisor,w
  1316     06F2  0471               	iorwf	___awmod@divisor+1,w
  1317     06F3  1903               	btfsc	3,2
  1318     06F4  2EF6               	goto	u521
  1319     06F5  2EF7               	goto	u520
  1320     06F6                     u521:
  1321     06F6  2F20               	goto	l1070
  1322     06F7                     u520:
  1323     06F7                     l1054:
  1324     06F7  01F5               	clrf	___awmod@counter
  1325     06F8  0AF5               	incf	___awmod@counter,f
  1326     06F9  2F03               	goto	l1060
  1327     06FA                     l1056:
  1328     06FA  3001               	movlw	1
  1329     06FB                     u535:
  1330     06FB  35F0               	lslf	___awmod@divisor,f
  1331     06FC  0DF1               	rlf	___awmod@divisor+1,f
  1332     06FD  0B89               	decfsz	9,f
  1333     06FE  2EFB               	goto	u535
  1334     06FF                     l1058:
  1335     06FF  3001               	movlw	1
  1336     0700  00F4               	movwf	??___awmod
  1337     0701  0874               	movf	??___awmod,w
  1338     0702  07F5               	addwf	___awmod@counter,f
  1339     0703                     l1060:
  1340     0703  1FF1               	btfss	___awmod@divisor+1,7
  1341     0704  2F06               	goto	u541
  1342     0705  2F07               	goto	u540
  1343     0706                     u541:
  1344     0706  2EFA               	goto	l1056
  1345     0707                     u540:
  1346     0707                     l1062:
  1347     0707  0871               	movf	___awmod@divisor+1,w
  1348     0708  0273               	subwf	___awmod@dividend+1,w
  1349     0709  1D03               	skipz
  1350     070A  2F0D               	goto	u555
  1351     070B  0870               	movf	___awmod@divisor,w
  1352     070C  0272               	subwf	___awmod@dividend,w
  1353     070D                     u555:
  1354     070D  1C03               	skipc
  1355     070E  2F10               	goto	u551
  1356     070F  2F11               	goto	u550
  1357     0710                     u551:
  1358     0710  2F15               	goto	l1066
  1359     0711                     u550:
  1360     0711                     l1064:
  1361     0711  0870               	movf	___awmod@divisor,w
  1362     0712  02F2               	subwf	___awmod@dividend,f
  1363     0713  0871               	movf	___awmod@divisor+1,w
  1364     0714  3BF3               	subwfb	___awmod@dividend+1,f
  1365     0715                     l1066:
  1366     0715  3001               	movlw	1
  1367     0716                     u565:
  1368     0716  36F1               	lsrf	___awmod@divisor+1,f
  1369     0717  0CF0               	rrf	___awmod@divisor,f
  1370     0718  0B89               	decfsz	9,f
  1371     0719  2F16               	goto	u565
  1372     071A                     l1068:
  1373     071A  3001               	movlw	1
  1374     071B  02F5               	subwf	___awmod@counter,f
  1375     071C  1D03               	btfss	3,2
  1376     071D  2F1F               	goto	u571
  1377     071E  2F20               	goto	u570
  1378     071F                     u571:
  1379     071F  2F07               	goto	l1062
  1380     0720                     u570:
  1381     0720                     l1070:
  1382     0720  0876               	movf	___awmod@sign,w
  1383     0721  1903               	btfsc	3,2
  1384     0722  2F24               	goto	u581
  1385     0723  2F25               	goto	u580
  1386     0724                     u581:
  1387     0724  2F2A               	goto	l1074
  1388     0725                     u580:
  1389     0725                     l1072:
  1390     0725  09F2               	comf	___awmod@dividend,f
  1391     0726  09F3               	comf	___awmod@dividend+1,f
  1392     0727  0AF2               	incf	___awmod@dividend,f
  1393     0728  1903               	skipnz
  1394     0729  0AF3               	incf	___awmod@dividend+1,f
  1395     072A                     l1074:
  1396     072A  0873               	movf	___awmod@dividend+1,w
  1397     072B  00F1               	movwf	?___awmod+1
  1398     072C  0872               	movf	___awmod@dividend,w
  1399     072D  00F0               	movwf	?___awmod
  1400     072E                     l436:
  1401     072E  0008               	return
  1402     072F                     __end_of___awmod:
  1403                           
  1404                           	psect	text3
  1405     072F                     __ptext3:	
  1406 ;; *************** function ___awdiv *****************
  1407 ;; Defined at:
  1408 ;;		line 5 in file "C:\Program Files\Microchip\xc8\v2.46\pic\sources\c99\common\awdiv.c"
  1409 ;; Parameters:    Size  Location     Type
  1410 ;;  divisor         2    0[COMMON] int 
  1411 ;;  dividend        2    2[COMMON] int 
  1412 ;; Auto vars:     Size  Location     Type
  1413 ;;  quotient        2    7[COMMON] int 
  1414 ;;  sign            1    6[COMMON] unsigned char 
  1415 ;;  counter         1    5[COMMON] unsigned char 
  1416 ;; Return value:  Size  Location     Type
  1417 ;;                  2    0[COMMON] int 
  1418 ;; Registers used:
  1419 ;;		wreg, status,2, status,0
  1420 ;; Tracked objects:
  1421 ;;		On entry : 0/0
  1422 ;;		On exit  : 0/0
  1423 ;;		Unchanged: 0/0
  1424 ;; Data sizes:     COMMON   BANK0   BANK1   BANK2   BANK3   BANK4   BANK5   BANK6   BANK7   BANK8   BANK9  BANK10  BANK1
      +1  BANK12
  1425 ;;      Params:         4       0       0       0       0       0       0       0       0       0       0       0       
      +0       0
  1426 ;;      Locals:         4       0       0       0       0       0       0       0       0       0       0       0       
      +0       0
  1427 ;;      Temps:          1       0       0       0       0       0       0       0       0       0       0       0       
      +0       0
  1428 ;;      Totals:         9       0       0       0       0       0       0       0       0       0       0       0       
      +0       0
  1429 ;;Total ram usage:        9 bytes
  1430 ;; Hardware stack levels used: 1
  1431 ;; This function calls:
  1432 ;;		Nothing
  1433 ;; This function is called by:
  1434 ;;		_update_display
  1435 ;; This function uses a non-reentrant model
  1436 ;;
  1437                           
  1438     072F                     ___awdiv:	
  1439                           ;psect for function ___awdiv
  1440                           
  1441     072F                     l996:	
  1442                           ;incstack = 0
  1443                           ; Regs used in ___awdiv: [wreg+status,2+status,0]
  1444                           
  1445     072F  01F6               	clrf	___awdiv@sign
  1446     0730                     l998:
  1447     0730  1FF1               	btfss	___awdiv@divisor+1,7
  1448     0731  2F33               	goto	u401
  1449     0732  2F34               	goto	u400
  1450     0733                     u401:
  1451     0733  2F3B               	goto	l1004
  1452     0734                     u400:
  1453     0734                     l1000:
  1454     0734  09F0               	comf	___awdiv@divisor,f
  1455     0735  09F1               	comf	___awdiv@divisor+1,f
  1456     0736  0AF0               	incf	___awdiv@divisor,f
  1457     0737  1903               	skipnz
  1458     0738  0AF1               	incf	___awdiv@divisor+1,f
  1459     0739                     l1002:
  1460     0739  01F6               	clrf	___awdiv@sign
  1461     073A  0AF6               	incf	___awdiv@sign,f
  1462     073B                     l1004:
  1463     073B  1FF3               	btfss	___awdiv@dividend+1,7
  1464     073C  2F3E               	goto	u411
  1465     073D  2F3F               	goto	u410
  1466     073E                     u411:
  1467     073E  2F48               	goto	l1010
  1468     073F                     u410:
  1469     073F                     l1006:
  1470     073F  09F2               	comf	___awdiv@dividend,f
  1471     0740  09F3               	comf	___awdiv@dividend+1,f
  1472     0741  0AF2               	incf	___awdiv@dividend,f
  1473     0742  1903               	skipnz
  1474     0743  0AF3               	incf	___awdiv@dividend+1,f
  1475     0744                     l1008:
  1476     0744  3001               	movlw	1
  1477     0745  00F4               	movwf	??___awdiv
  1478     0746  0874               	movf	??___awdiv,w
  1479     0747  06F6               	xorwf	___awdiv@sign,f
  1480     0748                     l1010:
  1481     0748  01F7               	clrf	___awdiv@quotient
  1482     0749  01F8               	clrf	___awdiv@quotient+1
  1483     074A                     l1012:
  1484     074A  0870               	movf	___awdiv@divisor,w
  1485     074B  0471               	iorwf	___awdiv@divisor+1,w
  1486     074C  1903               	btfsc	3,2
  1487     074D  2F4F               	goto	u421
  1488     074E  2F50               	goto	u420
  1489     074F                     u421:
  1490     074F  2F7F               	goto	l1032
  1491     0750                     u420:
  1492     0750                     l1014:
  1493     0750  01F5               	clrf	___awdiv@counter
  1494     0751  0AF5               	incf	___awdiv@counter,f
  1495     0752  2F5C               	goto	l1020
  1496     0753                     l1016:
  1497     0753  3001               	movlw	1
  1498     0754                     u435:
  1499     0754  35F0               	lslf	___awdiv@divisor,f
  1500     0755  0DF1               	rlf	___awdiv@divisor+1,f
  1501     0756  0B89               	decfsz	9,f
  1502     0757  2F54               	goto	u435
  1503     0758                     l1018:
  1504     0758  3001               	movlw	1
  1505     0759  00F4               	movwf	??___awdiv
  1506     075A  0874               	movf	??___awdiv,w
  1507     075B  07F5               	addwf	___awdiv@counter,f
  1508     075C                     l1020:
  1509     075C  1FF1               	btfss	___awdiv@divisor+1,7
  1510     075D  2F5F               	goto	u441
  1511     075E  2F60               	goto	u440
  1512     075F                     u441:
  1513     075F  2F53               	goto	l1016
  1514     0760                     u440:
  1515     0760                     l1022:
  1516     0760  3001               	movlw	1
  1517     0761                     u455:
  1518     0761  35F7               	lslf	___awdiv@quotient,f
  1519     0762  0DF8               	rlf	___awdiv@quotient+1,f
  1520     0763  0B89               	decfsz	9,f
  1521     0764  2F61               	goto	u455
  1522     0765  0871               	movf	___awdiv@divisor+1,w
  1523     0766  0273               	subwf	___awdiv@dividend+1,w
  1524     0767  1D03               	skipz
  1525     0768  2F6B               	goto	u465
  1526     0769  0870               	movf	___awdiv@divisor,w
  1527     076A  0272               	subwf	___awdiv@dividend,w
  1528     076B                     u465:
  1529     076B  1C03               	skipc
  1530     076C  2F6E               	goto	u461
  1531     076D  2F6F               	goto	u460
  1532     076E                     u461:
  1533     076E  2F74               	goto	l1028
  1534     076F                     u460:
  1535     076F                     l1024:
  1536     076F  0870               	movf	___awdiv@divisor,w
  1537     0770  02F2               	subwf	___awdiv@dividend,f
  1538     0771  0871               	movf	___awdiv@divisor+1,w
  1539     0772  3BF3               	subwfb	___awdiv@dividend+1,f
  1540     0773                     l1026:
  1541     0773  1477               	bsf	___awdiv@quotient,0
  1542     0774                     l1028:
  1543     0774  3001               	movlw	1
  1544     0775                     u475:
  1545     0775  36F1               	lsrf	___awdiv@divisor+1,f
  1546     0776  0CF0               	rrf	___awdiv@divisor,f
  1547     0777  0B89               	decfsz	9,f
  1548     0778  2F75               	goto	u475
  1549     0779                     l1030:
  1550     0779  3001               	movlw	1
  1551     077A  02F5               	subwf	___awdiv@counter,f
  1552     077B  1D03               	btfss	3,2
  1553     077C  2F7E               	goto	u481
  1554     077D  2F7F               	goto	u480
  1555     077E                     u481:
  1556     077E  2F60               	goto	l1022
  1557     077F                     u480:
  1558     077F                     l1032:
  1559     077F  0876               	movf	___awdiv@sign,w
  1560     0780  1903               	btfsc	3,2
  1561     0781  2F83               	goto	u491
  1562     0782  2F84               	goto	u490
  1563     0783                     u491:
  1564     0783  2F89               	goto	l1036
  1565     0784                     u490:
  1566     0784                     l1034:
  1567     0784  09F7               	comf	___awdiv@quotient,f
  1568     0785  09F8               	comf	___awdiv@quotient+1,f
  1569     0786  0AF7               	incf	___awdiv@quotient,f
  1570     0787  1903               	skipnz
  1571     0788  0AF8               	incf	___awdiv@quotient+1,f
  1572     0789                     l1036:
  1573     0789  0878               	movf	___awdiv@quotient+1,w
  1574     078A  00F1               	movwf	?___awdiv+1
  1575     078B  0877               	movf	___awdiv@quotient,w
  1576     078C  00F0               	movwf	?___awdiv
  1577     078D                     l423:
  1578     078D  0008               	return
  1579     078E                     __end_of___awdiv:
  1580                           
  1581                           	psect	text4
  1582     078E                     __ptext4:	
  1583 ;; *************** function _handle_buttons *****************
  1584 ;; Defined at:
  1585 ;;		line 94 in file "main.c"
  1586 ;; Parameters:    Size  Location     Type
  1587 ;;		None
  1588 ;; Auto vars:     Size  Location     Type
  1589 ;;		None
  1590 ;; Return value:  Size  Location     Type
  1591 ;;                  1    wreg      void 
  1592 ;; Registers used:
  1593 ;;		wreg, status,2, status,0
  1594 ;; Tracked objects:
  1595 ;;		On entry : 0/0
  1596 ;;		On exit  : 0/0
  1597 ;;		Unchanged: 0/0
  1598 ;; Data sizes:     COMMON   BANK0   BANK1   BANK2   BANK3   BANK4   BANK5   BANK6   BANK7   BANK8   BANK9  BANK10  BANK1
      +1  BANK12
  1599 ;;      Params:         0       0       0       0       0       0       0       0       0       0       0       0       
      +0       0
  1600 ;;      Locals:         0       0       0       0       0       0       0       0       0       0       0       0       
      +0       0
  1601 ;;      Temps:          1       0       0       0       0       0       0       0       0       0       0       0       
      +0       0
  1602 ;;      Totals:         1       0       0       0       0       0       0       0       0       0       0       0       
      +0       0
  1603 ;;Total ram usage:        1 bytes
  1604 ;; Hardware stack levels used: 1
  1605 ;; This function calls:
  1606 ;;		Nothing
  1607 ;; This function is called by:
  1608 ;;		_main
  1609 ;; This function uses a non-reentrant model
  1610 ;;
  1611                           
  1612     078E                     _handle_buttons:	
  1613                           ;psect for function _handle_buttons
  1614                           
  1615     078E                     l864:	
  1616                           ;incstack = 0
  1617                           ; Regs used in _handle_buttons: [wreg+status,2+status,0]
  1618                           
  1619                           
  1620                           ;main.c: 95:     if (PORTAbits.RA0 == 0 && !timer_running) {
  1621     078E  0020               	movlb	0	; select bank0
  1622     078F  180C               	btfsc	12,0	;volatile
  1623     0790  2F92               	goto	u201
  1624     0791  2F93               	goto	u200
  1625     0792                     u201:
  1626     0792  2FB3               	goto	l176
  1627     0793                     u200:
  1628     0793                     l866:
  1629     0793  087C               	movf	_timer_running,w
  1630     0794  1D03               	btfss	3,2
  1631     0795  2F97               	goto	u211
  1632     0796  2F98               	goto	u210
  1633     0797                     u211:
  1634     0797  2FB3               	goto	l176
  1635     0798                     u210:
  1636     0798                     l868:
  1637                           
  1638                           ;main.c: 96:         _delay((unsigned long)((20)*(20000000/4000.0)));
  1639     0798  3082               	movlw	130
  1640     0799  00F0               	movwf	??_handle_buttons
  1641     079A  30DE               	movlw	222
  1642     079B                     u697:
  1643     079B  0B89               	decfsz	9,f
  1644     079C  2F9B               	goto	u697
  1645     079D  0BF0               	decfsz	??_handle_buttons,f
  1646     079E  2F9B               	goto	u697
  1647     079F                     l870:
  1648                           
  1649                           ;main.c: 97:         if (PORTAbits.RA0 == 0) {
  1650     079F  0020               	movlb	0	; select bank0
  1651     07A0  180C               	btfsc	12,0	;volatile
  1652     07A1  2FA3               	goto	u221
  1653     07A2  2FA4               	goto	u220
  1654     07A3                     u221:
  1655     07A3  2FB3               	goto	l176
  1656     07A4                     u220:
  1657     07A4                     l872:
  1658                           
  1659                           ;main.c: 98:             minutes++;
  1660     07A4  3001               	movlw	1
  1661     07A5  00F0               	movwf	??_handle_buttons
  1662     07A6  0870               	movf	??_handle_buttons,w
  1663     07A7  07FD               	addwf	_minutes,f
  1664     07A8                     l874:
  1665                           
  1666                           ;main.c: 99:             if (minutes >= 60) {
  1667     07A8  303C               	movlw	60
  1668     07A9  027D               	subwf	_minutes,w
  1669     07AA  1C03               	skipc
  1670     07AB  2FAD               	goto	u231
  1671     07AC  2FAE               	goto	u230
  1672     07AD                     u231:
  1673     07AD  2FAF               	goto	l179
  1674     07AE                     u230:
  1675     07AE                     l876:
  1676                           
  1677                           ;main.c: 100:                 minutes = 0;
  1678     07AE  01FD               	clrf	_minutes
  1679     07AF                     l179:
  1680     07AF  1C0C               	btfss	12,0	;volatile
  1681     07B0  2FB2               	goto	u241
  1682     07B1  2FB3               	goto	u240
  1683     07B2                     u241:
  1684     07B2  2FAF               	goto	l179
  1685     07B3                     u240:
  1686     07B3                     l176:	
  1687                           ;main.c: 104:     }
  1688                           
  1689                           
  1690                           ;main.c: 106:     if (PORTAbits.RA1 == 0 && !timer_running) {
  1691     07B3  188C               	btfsc	12,1	;volatile
  1692     07B4  2FB6               	goto	u251
  1693     07B5  2FB7               	goto	u250
  1694     07B6                     u251:
  1695     07B6  2FD6               	goto	l182
  1696     07B7                     u250:
  1697     07B7                     l878:
  1698     07B7  087C               	movf	_timer_running,w
  1699     07B8  1D03               	btfss	3,2
  1700     07B9  2FBB               	goto	u261
  1701     07BA  2FBC               	goto	u260
  1702     07BB                     u261:
  1703     07BB  2FD6               	goto	l182
  1704     07BC                     u260:
  1705     07BC                     l880:
  1706                           
  1707                           ;main.c: 107:         _delay((unsigned long)((20)*(20000000/4000.0)));
  1708     07BC  3082               	movlw	130
  1709     07BD  00F0               	movwf	??_handle_buttons
  1710     07BE  30DE               	movlw	222
  1711     07BF                     u707:
  1712     07BF  0B89               	decfsz	9,f
  1713     07C0  2FBF               	goto	u707
  1714     07C1  0BF0               	decfsz	??_handle_buttons,f
  1715     07C2  2FBF               	goto	u707
  1716     07C3                     l882:
  1717                           
  1718                           ;main.c: 108:         if (PORTAbits.RA1 == 0) {
  1719     07C3  0020               	movlb	0	; select bank0
  1720     07C4  188C               	btfsc	12,1	;volatile
  1721     07C5  2FC7               	goto	u271
  1722     07C6  2FC8               	goto	u270
  1723     07C7                     u271:
  1724     07C7  2FD6               	goto	l182
  1725     07C8                     u270:
  1726     07C8                     l884:
  1727                           
  1728                           ;main.c: 109:             if (minutes == 0) {
  1729     07C8  087D               	movf	_minutes,w
  1730     07C9  1D03               	btfss	3,2
  1731     07CA  2FCC               	goto	u281
  1732     07CB  2FCD               	goto	u280
  1733     07CC                     u281:
  1734     07CC  2FD0               	goto	l888
  1735     07CD                     u280:
  1736     07CD                     l886:
  1737                           
  1738                           ;main.c: 110:                 minutes = 59;
  1739     07CD  303B               	movlw	59
  1740     07CE  00FD               	movwf	_minutes
  1741                           
  1742                           ;main.c: 111:             } else {
  1743     07CF  2FD2               	goto	l186
  1744     07D0                     l888:
  1745                           
  1746                           ;main.c: 112:                 minutes--;
  1747     07D0  3001               	movlw	1
  1748     07D1  02FD               	subwf	_minutes,f
  1749     07D2                     l186:
  1750     07D2  1C8C               	btfss	12,1	;volatile
  1751     07D3  2FD5               	goto	u291
  1752     07D4  2FD6               	goto	u290
  1753     07D5                     u291:
  1754     07D5  2FD2               	goto	l186
  1755     07D6                     u290:
  1756     07D6                     l182:	
  1757                           ;main.c: 116:     }
  1758                           
  1759                           
  1760                           ;main.c: 118:     if (PORTAbits.RA2 == 0) {
  1761     07D6  190C               	btfsc	12,2	;volatile
  1762     07D7  2FD9               	goto	u301
  1763     07D8  2FDA               	goto	u300
  1764     07D9                     u301:
  1765     07D9  2FF1               	goto	l194
  1766     07DA                     u300:
  1767     07DA                     l890:
  1768                           
  1769                           ;main.c: 119:         _delay((unsigned long)((20)*(20000000/4000.0)));
  1770     07DA  3082               	movlw	130
  1771     07DB  00F0               	movwf	??_handle_buttons
  1772     07DC  30DE               	movlw	222
  1773     07DD                     u717:
  1774     07DD  0B89               	decfsz	9,f
  1775     07DE  2FDD               	goto	u717
  1776     07DF  0BF0               	decfsz	??_handle_buttons,f
  1777     07E0  2FDD               	goto	u717
  1778     07E1                     l892:
  1779                           
  1780                           ;main.c: 120:         if (PORTAbits.RA2 == 0 && !timer_running) {
  1781     07E1  0020               	movlb	0	; select bank0
  1782     07E2  190C               	btfsc	12,2	;volatile
  1783     07E3  2FE5               	goto	u311
  1784     07E4  2FE6               	goto	u310
  1785     07E5                     u311:
  1786     07E5  2FF1               	goto	l194
  1787     07E6                     u310:
  1788     07E6                     l894:
  1789     07E6  087C               	movf	_timer_running,w
  1790     07E7  1D03               	btfss	3,2
  1791     07E8  2FEA               	goto	u321
  1792     07E9  2FEB               	goto	u320
  1793     07EA                     u321:
  1794     07EA  2FF1               	goto	l194
  1795     07EB                     u320:
  1796     07EB                     l896:
  1797                           
  1798                           ;main.c: 121:             timer_running = 1;
  1799     07EB  01FC               	clrf	_timer_running
  1800     07EC  0AFC               	incf	_timer_running,f
  1801     07ED                     l191:	
  1802                           ;main.c: 122:             while (PORTAbits.RA2 == 0);
  1803                           
  1804     07ED  1D0C               	btfss	12,2	;volatile
  1805     07EE  2FF0               	goto	u331
  1806     07EF  2FF1               	goto	u330
  1807     07F0                     u331:
  1808     07F0  2FED               	goto	l191
  1809     07F1                     u330:
  1810     07F1                     l194:
  1811     07F1  0008               	return
  1812     07F2                     __end_of_handle_buttons:
  1813                           
  1814                           	psect	text5
  1815     05E7                     __ptext5:	
  1816 ;; *************** function _Timer0_Write *****************
  1817 ;; Defined at:
  1818 ;;		line 77 in file "mcc_generated_files/timer/src/tmr0.c"
  1819 ;; Parameters:    Size  Location     Type
  1820 ;;  timerVal        2    0[COMMON] unsigned int 
  1821 ;; Auto vars:     Size  Location     Type
  1822 ;;		None
  1823 ;; Return value:  Size  Location     Type
  1824 ;;                  1    wreg      void 
  1825 ;; Registers used:
  1826 ;;		wreg
  1827 ;; Tracked objects:
  1828 ;;		On entry : 0/0
  1829 ;;		On exit  : 0/0
  1830 ;;		Unchanged: 0/0
  1831 ;; Data sizes:     COMMON   BANK0   BANK1   BANK2   BANK3   BANK4   BANK5   BANK6   BANK7   BANK8   BANK9  BANK10  BANK1
      +1  BANK12
  1832 ;;      Params:         2       0       0       0       0       0       0       0       0       0       0       0       
      +0       0
  1833 ;;      Locals:         0       0       0       0       0       0       0       0       0       0       0       0       
      +0       0
  1834 ;;      Temps:          0       0       0       0       0       0       0       0       0       0       0       0       
      +0       0
  1835 ;;      Totals:         2       0       0       0       0       0       0       0       0       0       0       0       
      +0       0
  1836 ;;Total ram usage:        2 bytes
  1837 ;; Hardware stack levels used: 1
  1838 ;; This function calls:
  1839 ;;		Nothing
  1840 ;; This function is called by:
  1841 ;;		_main
  1842 ;;		_Timer0_OverflowCallback
  1843 ;; This function uses a non-reentrant model
  1844 ;;
  1845                           
  1846     05E7                     _Timer0_Write:	
  1847                           ;psect for function _Timer0_Write
  1848                           
  1849     05E7                     l1080:	
  1850                           ;incstack = 0
  1851                           ; Regs used in _Timer0_Write: [wreg]
  1852                           
  1853                           
  1854                           ;mcc_generated_files/timer/src/tmr0.c: 77: void Timer0_Write(size_t timerVal);mcc_genera
      +                          ted_files/timer/src/tmr0.c: 78: {;mcc_generated_files/timer/src/tmr0.c: 80:   TMR0 = (ui
      +                          nt8_t) timerVal;
  1855     05E7  0870               	movf	Timer0_Write@timerVal,w
  1856     05E8  0020               	movlb	0	; select bank0
  1857     05E9  0095               	movwf	21	;volatile
  1858     05EA                     l117:
  1859     05EA  0008               	return
  1860     05EB                     __end_of_Timer0_Write:
  1861                           
  1862                           	psect	text6
  1863     0608                     __ptext6:	
  1864 ;; *************** function _SYSTEM_Initialize *****************
  1865 ;; Defined at:
  1866 ;;		line 39 in file "mcc_generated_files/system/src/system.c"
  1867 ;; Parameters:    Size  Location     Type
  1868 ;;		None
  1869 ;; Auto vars:     Size  Location     Type
  1870 ;;		None
  1871 ;; Return value:  Size  Location     Type
  1872 ;;                  1    wreg      void 
  1873 ;; Registers used:
  1874 ;;		wreg, status,2, status,0, pclath, cstack
  1875 ;; Tracked objects:
  1876 ;;		On entry : 0/0
  1877 ;;		On exit  : 0/0
  1878 ;;		Unchanged: 0/0
  1879 ;; Data sizes:     COMMON   BANK0   BANK1   BANK2   BANK3   BANK4   BANK5   BANK6   BANK7   BANK8   BANK9  BANK10  BANK1
      +1  BANK12
  1880 ;;      Params:         0       0       0       0       0       0       0       0       0       0       0       0       
      +0       0
  1881 ;;      Locals:         0       0       0       0       0       0       0       0       0       0       0       0       
      +0       0
  1882 ;;      Temps:          0       0       0       0       0       0       0       0       0       0       0       0       
      +0       0
  1883 ;;      Totals:         0       0       0       0       0       0       0       0       0       0       0       0       
      +0       0
  1884 ;;Total ram usage:        0 bytes
  1885 ;; Hardware stack levels used: 1
  1886 ;; Hardware stack levels required when called: 2
  1887 ;; This function calls:
  1888 ;;		_CLOCK_Initialize
  1889 ;;		_INTERRUPT_Initialize
  1890 ;;		_PIN_MANAGER_Initialize
  1891 ;;		_Timer0_Initialize
  1892 ;; This function is called by:
  1893 ;;		_main
  1894 ;; This function uses a non-reentrant model
  1895 ;;
  1896                           
  1897     0608                     _SYSTEM_Initialize:	
  1898                           ;psect for function _SYSTEM_Initialize
  1899                           
  1900     0608                     l1078:	
  1901                           ;incstack = 0
  1902                           ; Regs used in _SYSTEM_Initialize: [wreg+status,2+status,0+pclath+cstack]
  1903                           
  1904                           
  1905                           ;mcc_generated_files/system/src/system.c: 41:     CLOCK_Initialize();
  1906     0608  3185  25EB  3186   	fcall	_CLOCK_Initialize
  1907                           
  1908                           ;mcc_generated_files/system/src/system.c: 42:     PIN_MANAGER_Initialize();
  1909     060B  3186  2628  3186   	fcall	_PIN_MANAGER_Initialize
  1910                           
  1911                           ;mcc_generated_files/system/src/system.c: 43:     Timer0_Initialize();
  1912     060E  3186  2615  3186   	fcall	_Timer0_Initialize
  1913                           
  1914                           ;mcc_generated_files/system/src/system.c: 44:     INTERRUPT_Initialize();
  1915     0611  3185  25FD  3186   	fcall	_INTERRUPT_Initialize
  1916     0614                     l11:
  1917     0614  0008               	return
  1918     0615                     __end_of_SYSTEM_Initialize:
  1919                           
  1920                           	psect	text7
  1921     0615                     __ptext7:	
  1922 ;; *************** function _Timer0_Initialize *****************
  1923 ;; Defined at:
  1924 ;;		line 50 in file "mcc_generated_files/timer/src/tmr0.c"
  1925 ;; Parameters:    Size  Location     Type
  1926 ;;		None
  1927 ;; Auto vars:     Size  Location     Type
  1928 ;;		None
  1929 ;; Return value:  Size  Location     Type
  1930 ;;                  1    wreg      void 
  1931 ;; Registers used:
  1932 ;;		wreg, status,2, status,0, pclath, cstack
  1933 ;; Tracked objects:
  1934 ;;		On entry : 0/0
  1935 ;;		On exit  : 0/0
  1936 ;;		Unchanged: 0/0
  1937 ;; Data sizes:     COMMON   BANK0   BANK1   BANK2   BANK3   BANK4   BANK5   BANK6   BANK7   BANK8   BANK9  BANK10  BANK1
      +1  BANK12
  1938 ;;      Params:         0       0       0       0       0       0       0       0       0       0       0       0       
      +0       0
  1939 ;;      Locals:         0       0       0       0       0       0       0       0       0       0       0       0       
      +0       0
  1940 ;;      Temps:          0       0       0       0       0       0       0       0       0       0       0       0       
      +0       0
  1941 ;;      Totals:         0       0       0       0       0       0       0       0       0       0       0       0       
      +0       0
  1942 ;;Total ram usage:        0 bytes
  1943 ;; Hardware stack levels used: 1
  1944 ;; Hardware stack levels required when called: 1
  1945 ;; This function calls:
  1946 ;;		_Timer0_OverflowCallbackRegister
  1947 ;; This function is called by:
  1948 ;;		_SYSTEM_Initialize
  1949 ;; This function uses a non-reentrant model
  1950 ;;
  1951                           
  1952     0615                     _Timer0_Initialize:	
  1953                           ;psect for function _Timer0_Initialize
  1954                           
  1955     0615                     l982:	
  1956                           ;incstack = 0
  1957                           ; Regs used in _Timer0_Initialize: [wreg+status,2+status,0+pclath+cstack]
  1958                           
  1959                           
  1960                           ;mcc_generated_files/timer/src/tmr0.c: 53:   OPTION_REG = (uint8_t)((OPTION_REG & 0xC0) 
      +                          | (0xD7 & 0x3F));
  1961     0615  0021               	movlb	1	; select bank1
  1962     0616  0815               	movf	21,w	;volatile
  1963     0617  39C0               	andlw	192
  1964     0618  3817               	iorlw	23
  1965     0619  0095               	movwf	21	;volatile
  1966     061A                     l984:
  1967                           
  1968                           ;mcc_generated_files/timer/src/tmr0.c: 56:   TMR0 = 0xED;
  1969     061A  30ED               	movlw	237
  1970     061B  0020               	movlb	0	; select bank0
  1971     061C  0095               	movwf	21	;volatile
  1972     061D                     l986:
  1973                           
  1974                           ;mcc_generated_files/timer/src/tmr0.c: 59:   timer0ReloadVal = 237;
  1975     061D  30ED               	movlw	237
  1976     061E  00A7               	movwf	_timer0ReloadVal	;volatile
  1977     061F                     l988:
  1978                           
  1979                           ;mcc_generated_files/timer/src/tmr0.c: 62:   Timer0_OverflowCallbackRegister(Timer0_Defa
      +                          ultOverflowCallback);
  1980     061F  3000               	movlw	0
  1981     0620  00F0               	movwf	Timer0_OverflowCallbackRegister@CallbackHandler
  1982     0621  3000               	movlw	0
  1983     0622  00F1               	movwf	Timer0_OverflowCallbackRegister@CallbackHandler+1
  1984     0623  3185  25F7  3186   	fcall	_Timer0_OverflowCallbackRegister
  1985     0626                     l990:
  1986                           
  1987                           ;mcc_generated_files/timer/src/tmr0.c: 65:   INTCONbits.TMR0IF = 0;
  1988     0626  110B               	bcf	11,2	;volatile
  1989     0627                     l111:
  1990     0627  0008               	return
  1991     0628                     __end_of_Timer0_Initialize:
  1992                           
  1993                           	psect	text8
  1994     05F7                     __ptext8:	
  1995 ;; *************** function _Timer0_OverflowCallbackRegister *****************
  1996 ;; Defined at:
  1997 ;;		line 94 in file "mcc_generated_files/timer/src/tmr0.c"
  1998 ;; Parameters:    Size  Location     Type
  1999 ;;  CallbackHand    2    0[COMMON] PTR FTN()void 
  2000 ;;		 -> Timer0_OverflowCallback(1), Timer0_DefaultOverflowCallback(1), 
  2001 ;; Auto vars:     Size  Location     Type
  2002 ;;		None
  2003 ;; Return value:  Size  Location     Type
  2004 ;;                  1    wreg      void 
  2005 ;; Registers used:
  2006 ;;		wreg
  2007 ;; Tracked objects:
  2008 ;;		On entry : 0/0
  2009 ;;		On exit  : 0/0
  2010 ;;		Unchanged: 0/0
  2011 ;; Data sizes:     COMMON   BANK0   BANK1   BANK2   BANK3   BANK4   BANK5   BANK6   BANK7   BANK8   BANK9  BANK10  BANK1
      +1  BANK12
  2012 ;;      Params:         2       0       0       0       0       0       0       0       0       0       0       0       
      +0       0
  2013 ;;      Locals:         0       0       0       0       0       0       0       0       0       0       0       0       
      +0       0
  2014 ;;      Temps:          0       0       0       0       0       0       0       0       0       0       0       0       
      +0       0
  2015 ;;      Totals:         2       0       0       0       0       0       0       0       0       0       0       0       
      +0       0
  2016 ;;Total ram usage:        2 bytes
  2017 ;; Hardware stack levels used: 1
  2018 ;; This function calls:
  2019 ;;		Nothing
  2020 ;; This function is called by:
  2021 ;;		_Timer0_Initialize
  2022 ;;		_main
  2023 ;; This function uses a non-reentrant model
  2024 ;;
  2025                           
  2026     05F7                     _Timer0_OverflowCallbackRegister:	
  2027                           ;psect for function _Timer0_OverflowCallbackRegister
  2028                           
  2029     05F7                     l980:	
  2030                           ;incstack = 0
  2031                           ; Regs used in _Timer0_OverflowCallbackRegister: [wreg]
  2032                           
  2033                           
  2034                           ;mcc_generated_files/timer/src/tmr0.c: 94: void Timer0_OverflowCallbackRegister(void (* 
      +                          CallbackHandler)(void));mcc_generated_files/timer/src/tmr0.c: 95: {;mcc_generated_files/
      +                          timer/src/tmr0.c: 96:   Timer0_OverflowCallback = CallbackHandler;
  2035     05F7  0871               	movf	Timer0_OverflowCallbackRegister@CallbackHandler+1,w
  2036     05F8  0020               	movlb	0	; select bank0
  2037     05F9  00A9               	movwf	_Timer0_OverflowCallback@tmr0$F279+1
  2038     05FA  0870               	movf	Timer0_OverflowCallbackRegister@CallbackHandler,w
  2039     05FB  00A8               	movwf	_Timer0_OverflowCallback@tmr0$F279
  2040     05FC                     l126:
  2041     05FC  0008               	return
  2042     05FD                     __end_of_Timer0_OverflowCallbackRegister:
  2043                           
  2044                           	psect	text9
  2045     0628                     __ptext9:	
  2046 ;; *************** function _PIN_MANAGER_Initialize *****************
  2047 ;; Defined at:
  2048 ;;		line 38 in file "mcc_generated_files/system/src/pins.c"
  2049 ;; Parameters:    Size  Location     Type
  2050 ;;		None
  2051 ;; Auto vars:     Size  Location     Type
  2052 ;;		None
  2053 ;; Return value:  Size  Location     Type
  2054 ;;                  1    wreg      void 
  2055 ;; Registers used:
  2056 ;;		wreg, status,2
  2057 ;; Tracked objects:
  2058 ;;		On entry : 0/0
  2059 ;;		On exit  : 0/0
  2060 ;;		Unchanged: 0/0
  2061 ;; Data sizes:     COMMON   BANK0   BANK1   BANK2   BANK3   BANK4   BANK5   BANK6   BANK7   BANK8   BANK9  BANK10  BANK1
      +1  BANK12
  2062 ;;      Params:         0       0       0       0       0       0       0       0       0       0       0       0       
      +0       0
  2063 ;;      Locals:         0       0       0       0       0       0       0       0       0       0       0       0       
      +0       0
  2064 ;;      Temps:          0       0       0       0       0       0       0       0       0       0       0       0       
      +0       0
  2065 ;;      Totals:         0       0       0       0       0       0       0       0       0       0       0       0       
      +0       0
  2066 ;;Total ram usage:        0 bytes
  2067 ;; Hardware stack levels used: 1
  2068 ;; This function calls:
  2069 ;;		Nothing
  2070 ;; This function is called by:
  2071 ;;		_SYSTEM_Initialize
  2072 ;; This function uses a non-reentrant model
  2073 ;;
  2074                           
  2075     0628                     _PIN_MANAGER_Initialize:	
  2076                           ;psect for function _PIN_MANAGER_Initialize
  2077                           
  2078     0628                     l736:	
  2079                           ;incstack = 0
  2080                           ; Regs used in _PIN_MANAGER_Initialize: [wreg+status,2]
  2081                           
  2082                           
  2083                           ;mcc_generated_files/system/src/pins.c: 43:     LATA = 0x0;
  2084     0628  0022               	movlb	2	; select bank2
  2085     0629  018C               	clrf	12	;volatile
  2086                           
  2087                           ;mcc_generated_files/system/src/pins.c: 44:     LATB = 0x0;
  2088     062A  018D               	clrf	13	;volatile
  2089                           
  2090                           ;mcc_generated_files/system/src/pins.c: 45:     LATC = 0x0;
  2091     062B  018E               	clrf	14	;volatile
  2092     062C                     l738:
  2093                           
  2094                           ;mcc_generated_files/system/src/pins.c: 50:     TRISA = 0xD7;
  2095     062C  30D7               	movlw	215
  2096     062D  0021               	movlb	1	; select bank1
  2097     062E  008C               	movwf	12	;volatile
  2098     062F                     l740:
  2099                           
  2100                           ;mcc_generated_files/system/src/pins.c: 51:     TRISB = 0xF0;
  2101     062F  30F0               	movlw	240
  2102     0630  008D               	movwf	13	;volatile
  2103                           
  2104                           ;mcc_generated_files/system/src/pins.c: 52:     TRISC = 0x0;
  2105     0631  018E               	clrf	14	;volatile
  2106     0632                     l742:
  2107                           
  2108                           ;mcc_generated_files/system/src/pins.c: 53:     TRISE = 0x8;
  2109     0632  3008               	movlw	8
  2110     0633  0090               	movwf	16	;volatile
  2111     0634                     l744:
  2112                           
  2113                           ;mcc_generated_files/system/src/pins.c: 58:     ANSELA = 0x0;
  2114     0634  0023               	movlb	3	; select bank3
  2115     0635  018C               	clrf	12	;volatile
  2116                           
  2117                           ;mcc_generated_files/system/src/pins.c: 59:     ANSELB = 0x30;
  2118     0636  3030               	movlw	48
  2119     0637  008D               	movwf	13	;volatile
  2120     0638                     l746:
  2121                           
  2122                           ;mcc_generated_files/system/src/pins.c: 60:     ANSELC = 0x0;
  2123     0638  018E               	clrf	14	;volatile
  2124     0639                     l748:
  2125                           
  2126                           ;mcc_generated_files/system/src/pins.c: 65:     WPUB = 0xFF;
  2127     0639  30FF               	movlw	255
  2128     063A  0024               	movlb	4	; select bank4
  2129     063B  008D               	movwf	13	;volatile
  2130     063C                     l750:
  2131                           
  2132                           ;mcc_generated_files/system/src/pins.c: 66:     WPUE = 0x8;
  2133     063C  3008               	movlw	8
  2134     063D  0090               	movwf	16	;volatile
  2135     063E                     l752:
  2136                           
  2137                           ;mcc_generated_files/system/src/pins.c: 67:     OPTION_REGbits.nWPUEN = 0x0;
  2138     063E  0021               	movlb	1	; select bank1
  2139     063F  1395               	bcf	21,7	;volatile
  2140     0640                     l754:
  2141                           
  2142                           ;mcc_generated_files/system/src/pins.c: 91:     IOCBP = 0x0;
  2143     0640  0027               	movlb	7	; select bank7
  2144     0641  0194               	clrf	20	;volatile
  2145     0642                     l756:
  2146                           
  2147                           ;mcc_generated_files/system/src/pins.c: 92:     IOCBN = 0x0;
  2148     0642  0195               	clrf	21	;volatile
  2149     0643                     l758:
  2150                           
  2151                           ;mcc_generated_files/system/src/pins.c: 93:     IOCBF = 0x0;
  2152     0643  0196               	clrf	22	;volatile
  2153     0644                     l760:
  2154                           
  2155                           ;mcc_generated_files/system/src/pins.c: 97:     INTCONbits.IOCIE = 1;
  2156     0644  158B               	bsf	11,3	;volatile
  2157     0645                     l48:
  2158     0645  0008               	return
  2159     0646                     __end_of_PIN_MANAGER_Initialize:
  2160                           
  2161                           	psect	text10
  2162     05FD                     __ptext10:	
  2163 ;; *************** function _INTERRUPT_Initialize *****************
  2164 ;; Defined at:
  2165 ;;		line 40 in file "mcc_generated_files/system/src/interrupt.c"
  2166 ;; Parameters:    Size  Location     Type
  2167 ;;		None
  2168 ;; Auto vars:     Size  Location     Type
  2169 ;;		None
  2170 ;; Return value:  Size  Location     Type
  2171 ;;                  1    wreg      void 
  2172 ;; Registers used:
  2173 ;;		wreg, status,2, status,0, pclath, cstack
  2174 ;; Tracked objects:
  2175 ;;		On entry : 0/0
  2176 ;;		On exit  : 0/0
  2177 ;;		Unchanged: 0/0
  2178 ;; Data sizes:     COMMON   BANK0   BANK1   BANK2   BANK3   BANK4   BANK5   BANK6   BANK7   BANK8   BANK9  BANK10  BANK1
      +1  BANK12
  2179 ;;      Params:         0       0       0       0       0       0       0       0       0       0       0       0       
      +0       0
  2180 ;;      Locals:         0       0       0       0       0       0       0       0       0       0       0       0       
      +0       0
  2181 ;;      Temps:          0       0       0       0       0       0       0       0       0       0       0       0       
      +0       0
  2182 ;;      Totals:         0       0       0       0       0       0       0       0       0       0       0       0       
      +0       0
  2183 ;;Total ram usage:        0 bytes
  2184 ;; Hardware stack levels used: 1
  2185 ;; Hardware stack levels required when called: 1
  2186 ;; This function calls:
  2187 ;;		_INT_SetInterruptHandler
  2188 ;; This function is called by:
  2189 ;;		_SYSTEM_Initialize
  2190 ;; This function uses a non-reentrant model
  2191 ;;
  2192                           
  2193     05FD                     _INTERRUPT_Initialize:	
  2194                           ;psect for function _INTERRUPT_Initialize
  2195                           
  2196     05FD                     l992:	
  2197                           ;incstack = 0
  2198                           ; Regs used in _INTERRUPT_Initialize: [wreg+status,2+status,0+pclath+cstack]
  2199                           
  2200                           
  2201                           ;mcc_generated_files/system/src/interrupt.c: 44:     (INTCONbits.INTF = 0);
  2202     05FD  108B               	bcf	11,1	;volatile
  2203                           
  2204                           ;mcc_generated_files/system/src/interrupt.c: 45:     (OPTION_REGbits.INTEDG = 1);
  2205     05FE  0021               	movlb	1	; select bank1
  2206     05FF  1715               	bsf	21,6	;volatile
  2207     0600                     l994:
  2208                           
  2209                           ;mcc_generated_files/system/src/interrupt.c: 47:     INT_SetInterruptHandler(INT_Default
      +                          InterruptHandler);
  2210     0600  3000               	movlw	0
  2211     0601  00F0               	movwf	INT_SetInterruptHandler@InterruptHandler
  2212     0602  3000               	movlw	0
  2213     0603  00F1               	movwf	INT_SetInterruptHandler@InterruptHandler+1
  2214     0604  3185  25F1  3185   	fcall	_INT_SetInterruptHandler
  2215     0607                     l73:
  2216     0607  0008               	return
  2217     0608                     __end_of_INTERRUPT_Initialize:
  2218                           
  2219                           	psect	text11
  2220     05F1                     __ptext11:	
  2221 ;; *************** function _INT_SetInterruptHandler *****************
  2222 ;; Defined at:
  2223 ;;		line 71 in file "mcc_generated_files/system/src/interrupt.c"
  2224 ;; Parameters:    Size  Location     Type
  2225 ;;  InterruptHan    2    0[COMMON] PTR FTN()void 
  2226 ;;		 -> INT_DefaultInterruptHandler(1), 
  2227 ;; Auto vars:     Size  Location     Type
  2228 ;;		None
  2229 ;; Return value:  Size  Location     Type
  2230 ;;                  1    wreg      void 
  2231 ;; Registers used:
  2232 ;;		wreg
  2233 ;; Tracked objects:
  2234 ;;		On entry : 0/0
  2235 ;;		On exit  : 0/0
  2236 ;;		Unchanged: 0/0
  2237 ;; Data sizes:     COMMON   BANK0   BANK1   BANK2   BANK3   BANK4   BANK5   BANK6   BANK7   BANK8   BANK9  BANK10  BANK1
      +1  BANK12
  2238 ;;      Params:         2       0       0       0       0       0       0       0       0       0       0       0       
      +0       0
  2239 ;;      Locals:         0       0       0       0       0       0       0       0       0       0       0       0       
      +0       0
  2240 ;;      Temps:          0       0       0       0       0       0       0       0       0       0       0       0       
      +0       0
  2241 ;;      Totals:         2       0       0       0       0       0       0       0       0       0       0       0       
      +0       0
  2242 ;;Total ram usage:        2 bytes
  2243 ;; Hardware stack levels used: 1
  2244 ;; This function calls:
  2245 ;;		Nothing
  2246 ;; This function is called by:
  2247 ;;		_INTERRUPT_Initialize
  2248 ;; This function uses a non-reentrant model
  2249 ;;
  2250                           
  2251     05F1                     _INT_SetInterruptHandler:	
  2252                           ;psect for function _INT_SetInterruptHandler
  2253                           
  2254     05F1                     l978:	
  2255                           ;incstack = 0
  2256                           ; Regs used in _INT_SetInterruptHandler: [wreg]
  2257                           
  2258                           
  2259                           ;mcc_generated_files/system/src/interrupt.c: 72:     INT_InterruptHandler = InterruptHan
      +                          dler;
  2260     05F1  0871               	movf	INT_SetInterruptHandler@InterruptHandler+1,w
  2261     05F2  0020               	movlb	0	; select bank0
  2262     05F3  00AB               	movwf	_INT_InterruptHandler+1
  2263     05F4  0870               	movf	INT_SetInterruptHandler@InterruptHandler,w
  2264     05F5  00AA               	movwf	_INT_InterruptHandler
  2265     05F6                     l83:
  2266     05F6  0008               	return
  2267     05F7                     __end_of_INT_SetInterruptHandler:
  2268                           
  2269                           	psect	text12
  2270     05EB                     __ptext12:	
  2271 ;; *************** function _CLOCK_Initialize *****************
  2272 ;; Defined at:
  2273 ;;		line 39 in file "mcc_generated_files/system/src/clock.c"
  2274 ;; Parameters:    Size  Location     Type
  2275 ;;		None
  2276 ;; Auto vars:     Size  Location     Type
  2277 ;;		None
  2278 ;; Return value:  Size  Location     Type
  2279 ;;                  1    wreg      void 
  2280 ;; Registers used:
  2281 ;;		wreg, status,2
  2282 ;; Tracked objects:
  2283 ;;		On entry : 0/0
  2284 ;;		On exit  : 0/0
  2285 ;;		Unchanged: 0/0
  2286 ;; Data sizes:     COMMON   BANK0   BANK1   BANK2   BANK3   BANK4   BANK5   BANK6   BANK7   BANK8   BANK9  BANK10  BANK1
      +1  BANK12
  2287 ;;      Params:         0       0       0       0       0       0       0       0       0       0       0       0       
      +0       0
  2288 ;;      Locals:         0       0       0       0       0       0       0       0       0       0       0       0       
      +0       0
  2289 ;;      Temps:          0       0       0       0       0       0       0       0       0       0       0       0       
      +0       0
  2290 ;;      Totals:         0       0       0       0       0       0       0       0       0       0       0       0       
      +0       0
  2291 ;;Total ram usage:        0 bytes
  2292 ;; Hardware stack levels used: 1
  2293 ;; This function calls:
  2294 ;;		Nothing
  2295 ;; This function is called by:
  2296 ;;		_SYSTEM_Initialize
  2297 ;; This function uses a non-reentrant model
  2298 ;;
  2299                           
  2300     05EB                     _CLOCK_Initialize:	
  2301                           ;psect for function _CLOCK_Initialize
  2302                           
  2303     05EB                     l732:	
  2304                           ;incstack = 0
  2305                           ; Regs used in _CLOCK_Initialize: [wreg+status,2]
  2306                           
  2307                           
  2308                           ;mcc_generated_files/system/src/clock.c: 41:     OSCCON = (15 << 0x3)
  2309     05EB  3078               	movlw	120
  2310     05EC  0021               	movlb	1	; select bank1
  2311     05ED  0099               	movwf	25	;volatile
  2312     05EE                     l734:
  2313                           
  2314                           ;mcc_generated_files/system/src/clock.c: 43:     BORCON = (0 << 0x7)
  2315     05EE  0022               	movlb	2	; select bank2
  2316     05EF  0196               	clrf	22	;volatile
  2317     05F0                     l58:
  2318     05F0  0008               	return
  2319     05F1                     __end_of_CLOCK_Initialize:
  2320     007E                     btemp	set	126	;btemp
  2321     007E                     wtemp0	set	126
  2322                           
  2323                           	psect	config
  2324                           
  2325                           ;Config register CONFIG1 @ 0x8007
  2326                           ;	Oscillator Selection
  2327                           ;	FOSC = HS, HS Oscillator, High-speed crystal/resonator connected between OSC1 and OSC2
      +                           pins
  2328                           ;	Watchdog Timer Enable
  2329                           ;	WDTE = OFF, WDT disabled
  2330                           ;	Power-up Timer Enable
  2331                           ;	PWRTE = OFF, PWRT disabled
  2332                           ;	MCLR Pin Function Select
  2333                           ;	MCLRE = ON, MCLR/VPP pin function is MCLR
  2334                           ;	Flash Program Memory Code Protection
  2335                           ;	CP = OFF, Program memory code protection is disabled
  2336                           ;	Brown-out Reset Enable
  2337                           ;	BOREN = ON, Brown-out Reset enabled
  2338                           ;	Clock Out Enable
  2339                           ;	CLKOUTEN = OFF, CLKOUT function is disabled. I/O or oscillator function on the CLKOUT 
      +                          pin
  2340                           ;	Internal/External Switchover
  2341                           ;	IESO = ON, Internal/External Switchover mode is enabled
  2342                           ;	Fail-Safe Clock Monitor Enable
  2343                           ;	FCMEN = ON, Fail-Safe Clock Monitor is enabled
  2344     8007                     	org	32775
  2345     8007  3FE2               	dw	16354
  2346                           
  2347                           ;Config register CONFIG2 @ 0x8008
  2348                           ;	Flash Memory Self-Write Protection
  2349                           ;	WRT = OFF, Write protection off
  2350                           ;	Voltage Regulator Capacitor Enable bit
  2351                           ;	VCAPEN = OFF, VCAP pin function disabled
  2352                           ;	Stack Overflow/Underflow Reset Enable
  2353                           ;	STVREN = ON, Stack Overflow or Underflow will cause a Reset
  2354                           ;	Brown-out Reset Voltage Selection
  2355                           ;	BORV = LO, Brown-out Reset Voltage (Vbor), low trip point selected.
  2356                           ;	Low-Power Brown Out Reset
  2357                           ;	LPBOR = OFF, Low-Power BOR is disabled
  2358                           ;	Low-Voltage Programming Enable
  2359                           ;	LVP = ON, Low-voltage programming enabled
  2360     8008                     	org	32776
  2361     8008  3FFF               	dw	16383

Data Sizes:
    Strings     0
    Constant    22
    Data        0
    BSS         10
    Persistent  36
    Stack       0

Auto Spaces:
    Space          Size  Autos    Used
    COMMON           14     12      14
    BANK0            80      0      12
    BANK1            80      0       0
    BANK2            80      0       0
    BANK3            80      0       0
    BANK4            80      0       0
    BANK5            80      0       0
    BANK6            80      0       0
    BANK7            80      0       0
    BANK8            80      0       0
    BANK9            80      0       0
    BANK10           80      0       0
    BANK11           80      0       0
    BANK12           48      0       0

Pointer List with Targets:

    INT_InterruptHandler	PTR FTN()void  size(2) Largest target is 1
		 -> INT_DefaultInterruptHandler(), NULL(), 

    INT_SetInterruptHandler@InterruptHandler	PTR FTN()void  size(2) Largest target is 1
		 -> INT_DefaultInterruptHandler(), 

    S210$4$0	PTR FTN()void  size(2) Largest target is 1
		 -> Timer0_DefaultOverflowCallback(), Timer0_OverflowCallback(), 

    S210TMR_INTERFACE$Initialize	PTR FTN()void  size(2) Largest target is 1
		 -> Timer0_Initialize(), 

    S210TMR_INTERFACE$PeriodCountSet	PTR FTN(unsigned int ,)void  size(2) Largest target is 1
		 -> Timer0_Write(), 

    S210TMR_INTERFACE$Start	PTR FTN()void  size(2) Largest target is 1
		 -> NULL(), 

    S210TMR_INTERFACE$Stop	PTR FTN()void  size(2) Largest target is 1
		 -> NULL(), 

    S210TMR_INTERFACE$Tasks	PTR FTN()void  size(2) Largest target is 1
		 -> Timer0_Tasks(), 

    S210TMR_INTERFACE$TimeoutCallbackRegister	PTR FTN(PTR FTN()void ,)void  size(2) Largest target is 1
		 -> Timer0_OverflowCallbackRegister(), 

    Timer0$Initialize	PTR FTN()void  size(2) Largest target is 1
		 -> Timer0_Initialize(), 

    Timer0$PeriodCountSet	PTR FTN(unsigned int ,)void  size(2) Largest target is 1
		 -> Timer0_Write(), 

    Timer0$Start	PTR FTN()void  size(2) Largest target is 1
		 -> NULL(), 

    Timer0$Stop	PTR FTN()void  size(2) Largest target is 1
		 -> NULL(), 

    Timer0$Tasks	PTR FTN()void  size(2) Largest target is 1
		 -> Timer0_Tasks(), 

    Timer0$TimeoutCallbackRegister	PTR FTN(PTR FTN()void ,)void  size(2) Largest target is 1
		 -> Timer0_OverflowCallbackRegister(), 

    Timer0_OverflowCallback@tmr0$F279	PTR FTN()void  size(2) Largest target is 1
		 -> Timer0_DefaultOverflowCallback(), Timer0_OverflowCallback(), NULL(), 

    Timer0_OverflowCallbackRegister@CallbackHandler	PTR FTN()void  size(2) Largest target is 1
		 -> Timer0_DefaultOverflowCallback(), Timer0_OverflowCallback(), 


Critical Paths under _main in COMMON

    _main->_update_display
    _update_display->___awdiv
    _Timer0_Initialize->_Timer0_OverflowCallbackRegister
    _INTERRUPT_Initialize->_INT_SetInterruptHandler

Critical Paths under _main in BANK0

    None.

Critical Paths under _main in BANK1

    None.

Critical Paths under _main in BANK2

    None.

Critical Paths under _main in BANK3

    None.

Critical Paths under _main in BANK4

    None.

Critical Paths under _main in BANK5

    None.

Critical Paths under _main in BANK6

    None.

Critical Paths under _main in BANK7

    None.

Critical Paths under _main in BANK8

    None.

Critical Paths under _main in BANK9

    None.

Critical Paths under _main in BANK10

    None.

Critical Paths under _main in BANK11

    None.

Critical Paths under _main in BANK12

    None.

Call Graph Tables:

 ---------------------------------------------------------------------------------
 (Depth) Function   	        Calls       Base Space   Used Autos Params    Refs
 ---------------------------------------------------------------------------------
 (0) _main                                                 1     1      0    1824
                                             11 COMMON     1     1      0
                  _SYSTEM_Initialize
    _Timer0_OverflowCallbackRegister
                       _Timer0_Write
                     _handle_buttons
                     _update_display
 ---------------------------------------------------------------------------------
 (1) _update_display                                       2     2      0    1204
                                              9 COMMON     2     2      0
                            ___awdiv
                            ___awmod
 ---------------------------------------------------------------------------------
 (2) ___awmod                                              7     3      4     600
                                              0 COMMON     7     3      4
 ---------------------------------------------------------------------------------
 (2) ___awdiv                                              9     5      4     604
                                              0 COMMON     9     5      4
 ---------------------------------------------------------------------------------
 (1) _handle_buttons                                       1     1      0       0
                                              0 COMMON     1     1      0
 ---------------------------------------------------------------------------------
 (1) _Timer0_Write                                         2     0      2     174
                                              0 COMMON     2     0      2
 ---------------------------------------------------------------------------------
 (1) _SYSTEM_Initialize                                    0     0      0     272
                   _CLOCK_Initialize
               _INTERRUPT_Initialize
             _PIN_MANAGER_Initialize
                  _Timer0_Initialize
 ---------------------------------------------------------------------------------
 (2) _Timer0_Initialize                                    0     0      0     174
    _Timer0_OverflowCallbackRegister
 ---------------------------------------------------------------------------------
 (1) _Timer0_OverflowCallbackRegister                      2     0      2     174
                                              0 COMMON     2     0      2
 ---------------------------------------------------------------------------------
 (2) _PIN_MANAGER_Initialize                               0     0      0       0
 ---------------------------------------------------------------------------------
 (2) _INTERRUPT_Initialize                                 0     0      0      98
            _INT_SetInterruptHandler
 ---------------------------------------------------------------------------------
 (3) _INT_SetInterruptHandler                              2     0      2      98
                                              0 COMMON     2     0      2
 ---------------------------------------------------------------------------------
 (2) _CLOCK_Initialize                                     0     0      0       0
 ---------------------------------------------------------------------------------
 Estimated maximum stack depth 3
 ---------------------------------------------------------------------------------

 Call Graph Graphs:

 _main (ROOT)
   _SYSTEM_Initialize
     _CLOCK_Initialize
     _INTERRUPT_Initialize
       _INT_SetInterruptHandler
     _PIN_MANAGER_Initialize
     _Timer0_Initialize
       _Timer0_OverflowCallbackRegister
   _Timer0_OverflowCallbackRegister
   _Timer0_Write
   _handle_buttons
   _update_display
     ___awdiv
     ___awmod

 Address spaces:
Name               Size   Autos  Total    Cost      Usage
BIGRAM             3F0      0       0       0        0.0%
NULL                 0      0       0       0        0.0%
CODE                 0      0       0       0        0.0%
BITCOMMON            E      0       0       1        0.0%
BITSFR0              0      0       0       1        0.0%
SFR0                 0      0       0       1        0.0%
COMMON               E      C       E       2      100.0%
BITSFR1              0      0       0       2        0.0%
SFR1                 0      0       0       2        0.0%
BITSFR2              0      0       0       3        0.0%
SFR2                 0      0       0       3        0.0%
STACK                0      0       0       3        0.0%
BITBANK0            50      0       0       4        0.0%
BITSFR3              0      0       0       4        0.0%
SFR3                 0      0       0       4        0.0%
BANK0               50      0       C       5       15.0%
BITSFR4              0      0       0       5        0.0%
SFR4                 0      0       0       5        0.0%
BITBANK1            50      0       0       6        0.0%
BITSFR5              0      0       0       6        0.0%
SFR5                 0      0       0       6        0.0%
BANK1               50      0       0       7        0.0%
BITSFR6              0      0       0       7        0.0%
SFR6                 0      0       0       7        0.0%
BITBANK2            50      0       0       8        0.0%
BITSFR7              0      0       0       8        0.0%
SFR7                 0      0       0       8        0.0%
BANK2               50      0       0       9        0.0%
BITSFR8              0      0       0       9        0.0%
SFR8                 0      0       0       9        0.0%
BITBANK3            50      0       0      10        0.0%
BITSFR9              0      0       0      10        0.0%
SFR9                 0      0       0      10        0.0%
BANK3               50      0       0      11        0.0%
BITSFR10             0      0       0      11        0.0%
SFR10                0      0       0      11        0.0%
BITBANK4            50      0       0      12        0.0%
BITSFR11             0      0       0      12        0.0%
SFR11                0      0       0      12        0.0%
BANK4               50      0       0      13        0.0%
BITSFR12             0      0       0      13        0.0%
SFR12                0      0       0      13        0.0%
BITBANK5            50      0       0      14        0.0%
BITSFR13             0      0       0      14        0.0%
SFR13                0      0       0      14        0.0%
BANK5               50      0       0      15        0.0%
BITSFR14             0      0       0      15        0.0%
SFR14                0      0       0      15        0.0%
BITBANK6            50      0       0      16        0.0%
BITSFR15             0      0       0      16        0.0%
SFR15                0      0       0      16        0.0%
BANK6               50      0       0      17        0.0%
BITSFR16             0      0       0      17        0.0%
SFR16                0      0       0      17        0.0%
BITBANK7            50      0       0      18        0.0%
BITSFR17             0      0       0      18        0.0%
SFR17                0      0       0      18        0.0%
BANK7               50      0       0      19        0.0%
BITSFR18             0      0       0      19        0.0%
SFR18                0      0       0      19        0.0%
BITSFR19             0      0       0      20        0.0%
SFR19                0      0       0      20        0.0%
ABS                  0      0      1A      20        0.0%
BITBANK8            50      0       0      21        0.0%
BITSFR20             0      0       0      21        0.0%
SFR20                0      0       0      21        0.0%
BANK8               50      0       0      22        0.0%
BITSFR21             0      0       0      22        0.0%
SFR21                0      0       0      22        0.0%
BITBANK9            50      0       0      23        0.0%
BITSFR22             0      0       0      23        0.0%
SFR22                0      0       0      23        0.0%
BANK9               50      0       0      24        0.0%
BITSFR23             0      0       0      24        0.0%
SFR23                0      0       0      24        0.0%
BITBANK10           50      0       0      25        0.0%
BITSFR24             0      0       0      25        0.0%
SFR24                0      0       0      25        0.0%
BANK10              50      0       0      26        0.0%
BITSFR25             0      0       0      26        0.0%
SFR25                0      0       0      26        0.0%
BITBANK11           50      0       0      27        0.0%
BITSFR26             0      0       0      27        0.0%
SFR26                0      0       0      27        0.0%
BANK11              50      0       0      28        0.0%
BITSFR27             0      0       0      28        0.0%
SFR27                0      0       0      28        0.0%
BITBANK12           30      0       0      29        0.0%
BITSFR28             0      0       0      29        0.0%
SFR28                0      0       0      29        0.0%
BANK12              30      0       0      30        0.0%
BITSFR29             0      0       0      30        0.0%
SFR29                0      0       0      30        0.0%
BITSFR30             0      0       0      31        0.0%
SFR30                0      0       0      31        0.0%
DATA                 0      0      1A      31        0.0%
BITSFR31             0      0       0      32        0.0%
SFR31                0      0       0      32        0.0%


Microchip Technology PIC Macro Assembler V2.46 build 20240104201356 
Symbol Table                                                                                   Wed Sep 04 09:54:57 2024

                                            l11 0614                                              l48 0645  
                                            l73 0607                                              l58 05F0  
                                            l83 05F6                                    ___awdiv@sign 0076  
                                _update_display 0646                                 _timer0ReloadVal 0027  
                                           l111 0627                                             l117 05EA  
                                           l126 05FC                                             l162 068A  
                                           l182 07D6                                             l191 07ED  
                                           l423 078D                                             l176 07B3  
                                           l194 07F1                                             l186 07D2  
                                           l179 07AF                                             l436 072E  
                                           l199 069E                                             l732 05EB  
                                           l740 062F                                             l734 05EE  
                                           l750 063C                                             l742 0632  
                                           l760 0644                                             l752 063E  
                                           l744 0634                                             l736 0628  
                                           l754 0640                                             l746 0638  
                                           l738 062C                                             l756 0642  
                                           l748 0639                                             l758 0643  
                                           l870 079F                                             l880 07BC  
                                           l872 07A4                                             l864 078E  
                                           l890 07DA                                             l882 07C3  
                                           l874 07A8                                             l866 0793  
                                           l980 05F7                                             l892 07E1  
                                           l884 07C8                                             l876 07AE  
                                           l868 0798                                             l990 0626  
                                           l982 0615                                             l894 07E6  
                                           l886 07CD                                             l878 07B7  
                                           l992 05FD                                             l984 061A  
                                           l896 07EB                                             l888 07D0  
                                           l978 05F1                                             l994 0600  
                                           l986 061D                                             l988 061F  
                                           l996 072F                                             l998 0730  
                                           u200 0793                                             u201 0792  
                                           u210 0798                                             u211 0797  
                                           u300 07DA                                             u220 07A4  
                                           u301 07D9                                             u221 07A3  
                                           u310 07E6                                             u230 07AE  
                                           u311 07E5                                             u231 07AD  
                                           u320 07EB                                             u240 07B3  
                                           u400 0734                                             u321 07EA  
                                           u241 07B2                                             u401 0733  
                                           u330 07F1                                             u250 07B7  
                                           u410 073F                                             u331 07F0  
                                           u251 07B6                                             u411 073E  
                                           u260 07BC                                             u420 0750  
                                           u500 06E1                                             u261 07BB  
                                           u421 074F                                             u501 06E0  
                                           u270 07C8                                             u510 06EC  
                                           u271 07C7                                             u511 06EB  
                                           u280 07CD                                             u440 0760  
                                           u520 06F7                                             u281 07CC  
                                           u441 075F                                             u521 06F6  
                                           u290 07D6                                             u291 07D5  
                                           u435 0754                                             u460 076F  
                                           u540 0707                                             u461 076E  
                                           u541 0706                                             u550 0711  
                                           u455 0761                                             u551 0710  
                                           u535 06FB                                             u480 077F  
                                           u481 077E                                             u465 076B  
                                           u490 0784                                             u570 0720  
                                           u707 07BF                                             u491 0783  
                                           u475 0775                                             u571 071F  
                                           u555 070D                                             u580 0725  
                                           u717 07DD                                             u581 0724  
                                           u565 0716                                             u657 06AB  
                                           u667 06B8                                             u677 06C5  
                                           u687 06D2                                             u697 079B  
                                  ___awmod@sign 0076                                             wreg 0009  
                                          l1000 0734                                            l1010 0748  
                                          l1002 0739                                            l1020 075C  
                                          l1012 074A                                            l1004 073B  
                                          l1030 0779                                            l1022 0760  
                                          l1014 0750                                            l1006 073F  
                                          l1024 076F                                            l1016 0753  
                                          l1032 077F                                            l1008 0744  
                                          l1040 06DC                                            l1034 0784  
                                          l1026 0773                                            l1018 0758  
                                          l1050 06EC                                            l1042 06DD  
                                          l1130 06A6                                            l1122 068B  
                                          l1036 0789                                            l1028 0774  
                                          l1060 0703                                            l1052 06F1  
                                          l1044 06E1                                            l1140 06B5  
                                          l1132 06A8                                            l1124 068E  
                                          l1062 0707                                            l1054 06F7  
                                          l1070 0720                                            l1046 06E6  
                                          l1150 06CA                                            l1142 06BD  
                                          l1134 06B0                                            l1126 068F  
                                          l1080 05E7                                            l1072 0725  
                                          l1064 0711                                            l1056 06FA  
                                          l1048 06E8                                            l1152 06CC  
                                          l1144 06BF                                            l1136 06B2  
                                          l1128 06A4                                            l1074 072A  
                                          l1066 0715                                            l1058 06FF  
                                          l1082 0646                                            l1154 06CD  
                                          l1146 06C0                                            l1138 06B3  
                                          l1068 071A                                            l1156 06CF  
                                          l1148 06C2                                            l1078 0608  
                                          l1158 06D7                                            _LATA 010C  
                                          _LATB 010D                                            _LATC 010E  
                                          _TMR0 0015                                            _WPUB 020D  
                                          _WPUE 0210                                            _main 068B  
                                          btemp 007E                     _INT_DefaultInterruptHandler 0000  
                                          start 0002                 __end_of_INT_SetInterruptHandler 05F7  
                        __end_of_update_display 068B                                           ?_main 0070  
                               __end_of___awdiv 078E                                 __end_of___awmod 072F  
                               ___awdiv@divisor 0070                                           _IOCBF 0396  
                                         _IOCBN 0395                                           _IOCBP 0394  
                               ___awdiv@counter 0075                                           _TRISA 008C  
                                         _TRISB 008D                                           _TRISC 008E  
                                         _TRISE 0090                            Timer0_Write@timerVal 0070  
                                         _digit 0020                                           status 0003  
                                         wtemp0 007E                                 __initialization 07F2  
                                  __end_of_main 06DC                                 ?_update_display 0070  
                                        ??_main 007B                                ___awdiv@dividend 0072  
                                        _ANSELA 018C                                          _ANSELB 018D  
                                        _ANSELC 018E                                          _BORCON 0116  
                                        _OSCCON 0099                                          _Timer0 0800  
                                     ??___awdiv 0074                                       ??___awmod 0074  
                              ___awdiv@quotient 0077                                 ___awmod@divisor 0070  
                               ___awmod@counter 0075                               ?_CLOCK_Initialize 0070  
                            ??_CLOCK_Initialize 0070         INT_SetInterruptHandler@InterruptHandler 0070  
                             _SYSTEM_Initialize 0608         __end_of_Timer0_OverflowCallbackRegister 05FD  
             ??_Timer0_OverflowCallbackRegister 0072                ?_Timer0_OverflowCallbackRegister 0070  
               _Timer0_OverflowCallbackRegister 05F7                         __end_of__initialization 07FD  
                            ?_SYSTEM_Initialize 0070                                  __pcstackCOMMON 0070  
                           ??_SYSTEM_Initialize 0072                                  _OPTION_REGbits 0095  
                     __end_of_SYSTEM_Initialize 0615                                      __pbssBANK0 0020  
                                 ?_Timer0_Write 0070                                      __pmaintext 068B  
                                ??_Timer0_Write 0072                                ??_update_display 0079  
                                       ___awdiv 072F                                         ___awmod 06DC  
                             _Timer0_Initialize 0615                              ?_Timer0_Initialize 0070  
                                       __ptext1 0646                                         __ptext2 06DC  
                                       __ptext3 072F                                         __ptext4 078E  
                                       __ptext5 05E7                                         __ptext6 0608  
                                       __ptext7 0615                                         __ptext8 05F7  
                                       __ptext9 0628                                ___awmod@dividend 0072  
                                       _minutes 007D                        ??_PIN_MANAGER_Initialize 0070  
                                       _seconds 0026                         _INT_SetInterruptHandler 05F1  
                           ??_Timer0_Initialize 0072                            end_of_initialization 07FD  
               Timer0_OverflowCallback@ms_count 0024               _Timer0_OverflowCallback@tmr0$F279 0028  
                     __end_of_Timer0_Initialize 0628                                       _PORTAbits 000C  
Timer0_OverflowCallbackRegister@CallbackHandler 0070                                  __end_of_Timer0 080C  
                  __end_of_INTERRUPT_Initialize 0608                       ??_INT_SetInterruptHandler 0072  
                          __end_of_Timer0_Write 05EB                             start_initialization 07F2  
                                _handle_buttons 078E                          __end_of_handle_buttons 07F2  
                                   __pbssCOMMON 007C                                       ___latbits 0003  
                                     __pnvBANK0 0028                          _PIN_MANAGER_Initialize 0628  
                                      ?___awdiv 0070                                        ?___awmod 0070  
                               ?_handle_buttons 0070                  _Timer0_DefaultOverflowCallback 0000  
                           __end_of_SEGMENT_MAP 0816                            _INTERRUPT_Initialize 05FD  
                              _CLOCK_Initialize 05EB                                        _LATBbits 010D  
                         ?_INTERRUPT_Initialize 0070                                    _Timer0_Tasks 0000  
                                  _Timer0_Write 05E7                                     _SEGMENT_MAP 080C  
                                      __ptext10 05FD                                        __ptext11 05F1  
                                      __ptext12 05EB                                      _INTCONbits 000B  
                                 _timer_running 007C                            _INT_InterruptHandler 002A  
                        ??_INTERRUPT_Initialize 0072                         _Timer0_OverflowCallback 0000  
                       ?_PIN_MANAGER_Initialize 0070                        ?_INT_SetInterruptHandler 0070  
                              ??_handle_buttons 0070                        __end_of_CLOCK_Initialize 05F1  
                                 __pstringtext1 0800                                   __pstringtext2 080C  
                                    _OPTION_REG 0095                  __end_of_PIN_MANAGER_Initialize 0646  
