

Microchip MPLAB XC8 Assembler V2.46 build 20240104201356 
                                                                                               Wed Sep 04 11:57:41 2024

Microchip MPLAB XC8 C Compiler v2.46 (Free license) build 20240104201356 Og1 
     1                           	processor	16F1518
     2                           	pagewidth 120
     3                           	opt	flic
     4                           	psect	stringtext1,global,class=STRCODE,delta=2,noexec
     5                           	psect	stringtext2,global,class=STRCODE,delta=2,noexec
     6                           	psect	nvBANK0,global,class=BANK0,space=1,delta=1,noexec
     7                           	psect	cinit,global,class=CODE,merge=1,delta=2
     8                           	psect	bssCOMMON,global,class=COMMON,space=1,delta=1,noexec
     9                           	psect	bssBANK0,global,class=BANK0,space=1,delta=1,noexec
    10                           	psect	cstackCOMMON,global,class=COMMON,space=1,delta=1,noexec
    11                           	psect	cstackBANK0,global,class=BANK0,space=1,delta=1,noexec
    12                           	psect	maintext,global,class=CODE,merge=1,split=1,delta=2
    13                           	psect	text1,local,class=CODE,merge=1,delta=2
    14                           	psect	text2,local,class=CODE,merge=1,delta=2,group=1
    15                           	psect	text3,local,class=CODE,merge=1,delta=2,group=1
    16                           	psect	text4,local,class=CODE,merge=1,delta=2
    17                           	psect	text5,local,class=CODE,merge=1,delta=2
    18                           	psect	text6,local,class=CODE,merge=1,delta=2
    19                           	psect	text7,local,class=CODE,merge=1,delta=2
    20                           	psect	text8,local,class=CODE,merge=1,delta=2
    21                           	psect	text9,local,class=CODE,merge=1,delta=2
    22                           	psect	text10,local,class=CODE,merge=1,delta=2
    23                           	psect	config,global,abs,ovrld,class=CONFIG,space=4,delta=2,noexec
    24                           	dabs	1,0x7E,2
    25     0000                     
    26                           ; Generated 07/09/2023 GMT
    27                           ; 
    28                           ; Copyright © 2023, Microchip Technology Inc. and its subsidiaries ("Microchip")
    29                           ; All rights reserved.
    30                           ; 
    31                           ; This software is developed by Microchip Technology Inc. and its subsidiaries ("Microch
      +                          ip").
    32                           ; 
    33                           ; Redistribution and use in source and binary forms, with or without modification, are
    34                           ; permitted provided that the following conditions are met:
    35                           ; 
    36                           ;     1. Redistributions of source code must retain the above copyright notice, this lis
      +                          t of
    37                           ;        conditions and the following disclaimer.
    38                           ; 
    39                           ;     2. Redistributions in binary form must reproduce the above copyright notice, this 
      +                          list
    40                           ;        of conditions and the following disclaimer in the documentation and/or other
    41                           ;        materials provided with the distribution. Publication is not required when
    42                           ;        this file is used in an embedded application.
    43                           ; 
    44                           ;     3. Microchip's name may not be used to endorse or promote products derived from th
      +                          is
    45                           ;        software without specific prior written permission.
    46                           ; 
    47                           ; THIS SOFTWARE IS PROVIDED BY MICROCHIP "AS IS" AND ANY EXPRESS OR IMPLIED WARRANTIES,
    48                           ; INCLUDING, BUT NOT LIMITED TO, THE IMPLIED WARRANTIES OF MERCHANTABILITY AND FITNESS F
      +                          OR
    49                           ; PURPOSE ARE DISCLAIMED.  IN NO EVENT SHALL MICROCHIP BE LIABLE FOR ANY DIRECT, INDIREC
      +                          T,
    50                           ; INCIDENTAL, SPECIAL, EXEMPLARY, OR CONSEQUENTIAL DAMAGES (INCLUDING BUT NOT LIMITED TO
    51                           ; PROCUREMENT OF SUBSTITUTE GOODS OR SERVICES; LOSS OF USE, DATA OR PROFITS; OR BUSINESS
    52                           ; INTERRUPTION) HOWSOEVER CAUSED AND ON ANY THEORY OF LIABILITY, WHETHER IN CONTRACT, ST
      +                          RICT
    53                           ; LIABILITY, OR TORT (INCLUDING NEGLIGENCE OR OTHERWISE) ARISING IN ANY WAY OUT OF THE U
      +                          SE OF
    54                           ; THIS SOFTWARE, EVEN IF ADVISED OF THE POSSIBILITY OF SUCH DAMAGE.
    55                           ; 
    56                           ; 
    57                           ; Code-generator required, PIC16F1518 Definitions
    58                           ; 
    59                           ; SFR Addresses
    60     0000                     	;# 
    61     0001                     	;# 
    62     0002                     	;# 
    63     0003                     	;# 
    64     0004                     	;# 
    65     0005                     	;# 
    66     0006                     	;# 
    67     0007                     	;# 
    68     0008                     	;# 
    69     0009                     	;# 
    70     000A                     	;# 
    71     000B                     	;# 
    72     000C                     	;# 
    73     000D                     	;# 
    74     000E                     	;# 
    75     0010                     	;# 
    76     0011                     	;# 
    77     0012                     	;# 
    78     0015                     	;# 
    79     0016                     	;# 
    80     0016                     	;# 
    81     0017                     	;# 
    82     0018                     	;# 
    83     0019                     	;# 
    84     001A                     	;# 
    85     001B                     	;# 
    86     001C                     	;# 
    87     008C                     	;# 
    88     008D                     	;# 
    89     008E                     	;# 
    90     0090                     	;# 
    91     0091                     	;# 
    92     0092                     	;# 
    93     0095                     	;# 
    94     0096                     	;# 
    95     0097                     	;# 
    96     0099                     	;# 
    97     009A                     	;# 
    98     009B                     	;# 
    99     009B                     	;# 
   100     009C                     	;# 
   101     009D                     	;# 
   102     009E                     	;# 
   103     010C                     	;# 
   104     010D                     	;# 
   105     010E                     	;# 
   106     0116                     	;# 
   107     0117                     	;# 
   108     011D                     	;# 
   109     018C                     	;# 
   110     018D                     	;# 
   111     018E                     	;# 
   112     0191                     	;# 
   113     0191                     	;# 
   114     0192                     	;# 
   115     0193                     	;# 
   116     0193                     	;# 
   117     0194                     	;# 
   118     0195                     	;# 
   119     0196                     	;# 
   120     0197                     	;# 
   121     0199                     	;# 
   122     019A                     	;# 
   123     019B                     	;# 
   124     019B                     	;# 
   125     019B                     	;# 
   126     019B                     	;# 
   127     019C                     	;# 
   128     019C                     	;# 
   129     019D                     	;# 
   130     019E                     	;# 
   131     019F                     	;# 
   132     020D                     	;# 
   133     0210                     	;# 
   134     0211                     	;# 
   135     0211                     	;# 
   136     0212                     	;# 
   137     0212                     	;# 
   138     0213                     	;# 
   139     0213                     	;# 
   140     0214                     	;# 
   141     0214                     	;# 
   142     0215                     	;# 
   143     0215                     	;# 
   144     0215                     	;# 
   145     0216                     	;# 
   146     0216                     	;# 
   147     0217                     	;# 
   148     0217                     	;# 
   149     0291                     	;# 
   150     0291                     	;# 
   151     0292                     	;# 
   152     0293                     	;# 
   153     0298                     	;# 
   154     0298                     	;# 
   155     0299                     	;# 
   156     029A                     	;# 
   157     0394                     	;# 
   158     0395                     	;# 
   159     0396                     	;# 
   160     0FE4                     	;# 
   161     0FE5                     	;# 
   162     0FE6                     	;# 
   163     0FE7                     	;# 
   164     0FE8                     	;# 
   165     0FE9                     	;# 
   166     0FEA                     	;# 
   167     0FEB                     	;# 
   168     0FED                     	;# 
   169     0FEE                     	;# 
   170     0FEF                     	;# 
   171     0000                     	;# 
   172     0001                     	;# 
   173     0002                     	;# 
   174     0003                     	;# 
   175     0004                     	;# 
   176     0005                     	;# 
   177     0006                     	;# 
   178     0007                     	;# 
   179     0008                     	;# 
   180     0009                     	;# 
   181     000A                     	;# 
   182     000B                     	;# 
   183     000C                     	;# 
   184     000D                     	;# 
   185     000E                     	;# 
   186     0010                     	;# 
   187     0011                     	;# 
   188     0012                     	;# 
   189     0015                     	;# 
   190     0016                     	;# 
   191     0016                     	;# 
   192     0017                     	;# 
   193     0018                     	;# 
   194     0019                     	;# 
   195     001A                     	;# 
   196     001B                     	;# 
   197     001C                     	;# 
   198     008C                     	;# 
   199     008D                     	;# 
   200     008E                     	;# 
   201     0090                     	;# 
   202     0091                     	;# 
   203     0092                     	;# 
   204     0095                     	;# 
   205     0096                     	;# 
   206     0097                     	;# 
   207     0099                     	;# 
   208     009A                     	;# 
   209     009B                     	;# 
   210     009B                     	;# 
   211     009C                     	;# 
   212     009D                     	;# 
   213     009E                     	;# 
   214     010C                     	;# 
   215     010D                     	;# 
   216     010E                     	;# 
   217     0116                     	;# 
   218     0117                     	;# 
   219     011D                     	;# 
   220     018C                     	;# 
   221     018D                     	;# 
   222     018E                     	;# 
   223     0191                     	;# 
   224     0191                     	;# 
   225     0192                     	;# 
   226     0193                     	;# 
   227     0193                     	;# 
   228     0194                     	;# 
   229     0195                     	;# 
   230     0196                     	;# 
   231     0197                     	;# 
   232     0199                     	;# 
   233     019A                     	;# 
   234     019B                     	;# 
   235     019B                     	;# 
   236     019B                     	;# 
   237     019B                     	;# 
   238     019C                     	;# 
   239     019C                     	;# 
   240     019D                     	;# 
   241     019E                     	;# 
   242     019F                     	;# 
   243     020D                     	;# 
   244     0210                     	;# 
   245     0211                     	;# 
   246     0211                     	;# 
   247     0212                     	;# 
   248     0212                     	;# 
   249     0213                     	;# 
   250     0213                     	;# 
   251     0214                     	;# 
   252     0214                     	;# 
   253     0215                     	;# 
   254     0215                     	;# 
   255     0215                     	;# 
   256     0216                     	;# 
   257     0216                     	;# 
   258     0217                     	;# 
   259     0217                     	;# 
   260     0291                     	;# 
   261     0291                     	;# 
   262     0292                     	;# 
   263     0293                     	;# 
   264     0298                     	;# 
   265     0298                     	;# 
   266     0299                     	;# 
   267     029A                     	;# 
   268     0394                     	;# 
   269     0395                     	;# 
   270     0396                     	;# 
   271     0FE4                     	;# 
   272     0FE5                     	;# 
   273     0FE6                     	;# 
   274     0FE7                     	;# 
   275     0FE8                     	;# 
   276     0FE9                     	;# 
   277     0FEA                     	;# 
   278     0FEB                     	;# 
   279     0FED                     	;# 
   280     0FEE                     	;# 
   281     0FEF                     	;# 
   282     0000                     	;# 
   283     0001                     	;# 
   284     0002                     	;# 
   285     0003                     	;# 
   286     0004                     	;# 
   287     0005                     	;# 
   288     0006                     	;# 
   289     0007                     	;# 
   290     0008                     	;# 
   291     0009                     	;# 
   292     000A                     	;# 
   293     000B                     	;# 
   294     000C                     	;# 
   295     000D                     	;# 
   296     000E                     	;# 
   297     0010                     	;# 
   298     0011                     	;# 
   299     0012                     	;# 
   300     0015                     	;# 
   301     0016                     	;# 
   302     0016                     	;# 
   303     0017                     	;# 
   304     0018                     	;# 
   305     0019                     	;# 
   306     001A                     	;# 
   307     001B                     	;# 
   308     001C                     	;# 
   309     008C                     	;# 
   310     008D                     	;# 
   311     008E                     	;# 
   312     0090                     	;# 
   313     0091                     	;# 
   314     0092                     	;# 
   315     0095                     	;# 
   316     0096                     	;# 
   317     0097                     	;# 
   318     0099                     	;# 
   319     009A                     	;# 
   320     009B                     	;# 
   321     009B                     	;# 
   322     009C                     	;# 
   323     009D                     	;# 
   324     009E                     	;# 
   325     010C                     	;# 
   326     010D                     	;# 
   327     010E                     	;# 
   328     0116                     	;# 
   329     0117                     	;# 
   330     011D                     	;# 
   331     018C                     	;# 
   332     018D                     	;# 
   333     018E                     	;# 
   334     0191                     	;# 
   335     0191                     	;# 
   336     0192                     	;# 
   337     0193                     	;# 
   338     0193                     	;# 
   339     0194                     	;# 
   340     0195                     	;# 
   341     0196                     	;# 
   342     0197                     	;# 
   343     0199                     	;# 
   344     019A                     	;# 
   345     019B                     	;# 
   346     019B                     	;# 
   347     019B                     	;# 
   348     019B                     	;# 
   349     019C                     	;# 
   350     019C                     	;# 
   351     019D                     	;# 
   352     019E                     	;# 
   353     019F                     	;# 
   354     020D                     	;# 
   355     0210                     	;# 
   356     0211                     	;# 
   357     0211                     	;# 
   358     0212                     	;# 
   359     0212                     	;# 
   360     0213                     	;# 
   361     0213                     	;# 
   362     0214                     	;# 
   363     0214                     	;# 
   364     0215                     	;# 
   365     0215                     	;# 
   366     0215                     	;# 
   367     0216                     	;# 
   368     0216                     	;# 
   369     0217                     	;# 
   370     0217                     	;# 
   371     0291                     	;# 
   372     0291                     	;# 
   373     0292                     	;# 
   374     0293                     	;# 
   375     0298                     	;# 
   376     0298                     	;# 
   377     0299                     	;# 
   378     029A                     	;# 
   379     0394                     	;# 
   380     0395                     	;# 
   381     0396                     	;# 
   382     0FE4                     	;# 
   383     0FE5                     	;# 
   384     0FE6                     	;# 
   385     0FE7                     	;# 
   386     0FE8                     	;# 
   387     0FE9                     	;# 
   388     0FEA                     	;# 
   389     0FEB                     	;# 
   390     0FED                     	;# 
   391     0FEE                     	;# 
   392     0FEF                     	;# 
   393     0000                     	;# 
   394     0001                     	;# 
   395     0002                     	;# 
   396     0003                     	;# 
   397     0004                     	;# 
   398     0005                     	;# 
   399     0006                     	;# 
   400     0007                     	;# 
   401     0008                     	;# 
   402     0009                     	;# 
   403     000A                     	;# 
   404     000B                     	;# 
   405     000C                     	;# 
   406     000D                     	;# 
   407     000E                     	;# 
   408     0010                     	;# 
   409     0011                     	;# 
   410     0012                     	;# 
   411     0015                     	;# 
   412     0016                     	;# 
   413     0016                     	;# 
   414     0017                     	;# 
   415     0018                     	;# 
   416     0019                     	;# 
   417     001A                     	;# 
   418     001B                     	;# 
   419     001C                     	;# 
   420     008C                     	;# 
   421     008D                     	;# 
   422     008E                     	;# 
   423     0090                     	;# 
   424     0091                     	;# 
   425     0092                     	;# 
   426     0095                     	;# 
   427     0096                     	;# 
   428     0097                     	;# 
   429     0099                     	;# 
   430     009A                     	;# 
   431     009B                     	;# 
   432     009B                     	;# 
   433     009C                     	;# 
   434     009D                     	;# 
   435     009E                     	;# 
   436     010C                     	;# 
   437     010D                     	;# 
   438     010E                     	;# 
   439     0116                     	;# 
   440     0117                     	;# 
   441     011D                     	;# 
   442     018C                     	;# 
   443     018D                     	;# 
   444     018E                     	;# 
   445     0191                     	;# 
   446     0191                     	;# 
   447     0192                     	;# 
   448     0193                     	;# 
   449     0193                     	;# 
   450     0194                     	;# 
   451     0195                     	;# 
   452     0196                     	;# 
   453     0197                     	;# 
   454     0199                     	;# 
   455     019A                     	;# 
   456     019B                     	;# 
   457     019B                     	;# 
   458     019B                     	;# 
   459     019B                     	;# 
   460     019C                     	;# 
   461     019C                     	;# 
   462     019D                     	;# 
   463     019E                     	;# 
   464     019F                     	;# 
   465     020D                     	;# 
   466     0210                     	;# 
   467     0211                     	;# 
   468     0211                     	;# 
   469     0212                     	;# 
   470     0212                     	;# 
   471     0213                     	;# 
   472     0213                     	;# 
   473     0214                     	;# 
   474     0214                     	;# 
   475     0215                     	;# 
   476     0215                     	;# 
   477     0215                     	;# 
   478     0216                     	;# 
   479     0216                     	;# 
   480     0217                     	;# 
   481     0217                     	;# 
   482     0291                     	;# 
   483     0291                     	;# 
   484     0292                     	;# 
   485     0293                     	;# 
   486     0298                     	;# 
   487     0298                     	;# 
   488     0299                     	;# 
   489     029A                     	;# 
   490     0394                     	;# 
   491     0395                     	;# 
   492     0396                     	;# 
   493     0FE4                     	;# 
   494     0FE5                     	;# 
   495     0FE6                     	;# 
   496     0FE7                     	;# 
   497     0FE8                     	;# 
   498     0FE9                     	;# 
   499     0FEA                     	;# 
   500     0FEB                     	;# 
   501     0FED                     	;# 
   502     0FEE                     	;# 
   503     0FEF                     	;# 
   504     0000                     	;# 
   505     0001                     	;# 
   506     0002                     	;# 
   507     0003                     	;# 
   508     0004                     	;# 
   509     0005                     	;# 
   510     0006                     	;# 
   511     0007                     	;# 
   512     0008                     	;# 
   513     0009                     	;# 
   514     000A                     	;# 
   515     000B                     	;# 
   516     000C                     	;# 
   517     000D                     	;# 
   518     000E                     	;# 
   519     0010                     	;# 
   520     0011                     	;# 
   521     0012                     	;# 
   522     0015                     	;# 
   523     0016                     	;# 
   524     0016                     	;# 
   525     0017                     	;# 
   526     0018                     	;# 
   527     0019                     	;# 
   528     001A                     	;# 
   529     001B                     	;# 
   530     001C                     	;# 
   531     008C                     	;# 
   532     008D                     	;# 
   533     008E                     	;# 
   534     0090                     	;# 
   535     0091                     	;# 
   536     0092                     	;# 
   537     0095                     	;# 
   538     0096                     	;# 
   539     0097                     	;# 
   540     0099                     	;# 
   541     009A                     	;# 
   542     009B                     	;# 
   543     009B                     	;# 
   544     009C                     	;# 
   545     009D                     	;# 
   546     009E                     	;# 
   547     010C                     	;# 
   548     010D                     	;# 
   549     010E                     	;# 
   550     0116                     	;# 
   551     0117                     	;# 
   552     011D                     	;# 
   553     018C                     	;# 
   554     018D                     	;# 
   555     018E                     	;# 
   556     0191                     	;# 
   557     0191                     	;# 
   558     0192                     	;# 
   559     0193                     	;# 
   560     0193                     	;# 
   561     0194                     	;# 
   562     0195                     	;# 
   563     0196                     	;# 
   564     0197                     	;# 
   565     0199                     	;# 
   566     019A                     	;# 
   567     019B                     	;# 
   568     019B                     	;# 
   569     019B                     	;# 
   570     019B                     	;# 
   571     019C                     	;# 
   572     019C                     	;# 
   573     019D                     	;# 
   574     019E                     	;# 
   575     019F                     	;# 
   576     020D                     	;# 
   577     0210                     	;# 
   578     0211                     	;# 
   579     0211                     	;# 
   580     0212                     	;# 
   581     0212                     	;# 
   582     0213                     	;# 
   583     0213                     	;# 
   584     0214                     	;# 
   585     0214                     	;# 
   586     0215                     	;# 
   587     0215                     	;# 
   588     0215                     	;# 
   589     0216                     	;# 
   590     0216                     	;# 
   591     0217                     	;# 
   592     0217                     	;# 
   593     0291                     	;# 
   594     0291                     	;# 
   595     0292                     	;# 
   596     0293                     	;# 
   597     0298                     	;# 
   598     0298                     	;# 
   599     0299                     	;# 
   600     029A                     	;# 
   601     0394                     	;# 
   602     0395                     	;# 
   603     0396                     	;# 
   604     0FE4                     	;# 
   605     0FE5                     	;# 
   606     0FE6                     	;# 
   607     0FE7                     	;# 
   608     0FE8                     	;# 
   609     0FE9                     	;# 
   610     0FEA                     	;# 
   611     0FEB                     	;# 
   612     0FED                     	;# 
   613     0FEE                     	;# 
   614     0FEF                     	;# 
   615     0000                     	;# 
   616     0001                     	;# 
   617     0002                     	;# 
   618     0003                     	;# 
   619     0004                     	;# 
   620     0005                     	;# 
   621     0006                     	;# 
   622     0007                     	;# 
   623     0008                     	;# 
   624     0009                     	;# 
   625     000A                     	;# 
   626     000B                     	;# 
   627     000C                     	;# 
   628     000D                     	;# 
   629     000E                     	;# 
   630     0010                     	;# 
   631     0011                     	;# 
   632     0012                     	;# 
   633     0015                     	;# 
   634     0016                     	;# 
   635     0016                     	;# 
   636     0017                     	;# 
   637     0018                     	;# 
   638     0019                     	;# 
   639     001A                     	;# 
   640     001B                     	;# 
   641     001C                     	;# 
   642     008C                     	;# 
   643     008D                     	;# 
   644     008E                     	;# 
   645     0090                     	;# 
   646     0091                     	;# 
   647     0092                     	;# 
   648     0095                     	;# 
   649     0096                     	;# 
   650     0097                     	;# 
   651     0099                     	;# 
   652     009A                     	;# 
   653     009B                     	;# 
   654     009B                     	;# 
   655     009C                     	;# 
   656     009D                     	;# 
   657     009E                     	;# 
   658     010C                     	;# 
   659     010D                     	;# 
   660     010E                     	;# 
   661     0116                     	;# 
   662     0117                     	;# 
   663     011D                     	;# 
   664     018C                     	;# 
   665     018D                     	;# 
   666     018E                     	;# 
   667     0191                     	;# 
   668     0191                     	;# 
   669     0192                     	;# 
   670     0193                     	;# 
   671     0193                     	;# 
   672     0194                     	;# 
   673     0195                     	;# 
   674     0196                     	;# 
   675     0197                     	;# 
   676     0199                     	;# 
   677     019A                     	;# 
   678     019B                     	;# 
   679     019B                     	;# 
   680     019B                     	;# 
   681     019B                     	;# 
   682     019C                     	;# 
   683     019C                     	;# 
   684     019D                     	;# 
   685     019E                     	;# 
   686     019F                     	;# 
   687     020D                     	;# 
   688     0210                     	;# 
   689     0211                     	;# 
   690     0211                     	;# 
   691     0212                     	;# 
   692     0212                     	;# 
   693     0213                     	;# 
   694     0213                     	;# 
   695     0214                     	;# 
   696     0214                     	;# 
   697     0215                     	;# 
   698     0215                     	;# 
   699     0215                     	;# 
   700     0216                     	;# 
   701     0216                     	;# 
   702     0217                     	;# 
   703     0217                     	;# 
   704     0291                     	;# 
   705     0291                     	;# 
   706     0292                     	;# 
   707     0293                     	;# 
   708     0298                     	;# 
   709     0298                     	;# 
   710     0299                     	;# 
   711     029A                     	;# 
   712     0394                     	;# 
   713     0395                     	;# 
   714     0396                     	;# 
   715     0FE4                     	;# 
   716     0FE5                     	;# 
   717     0FE6                     	;# 
   718     0FE7                     	;# 
   719     0FE8                     	;# 
   720     0FE9                     	;# 
   721     0FEA                     	;# 
   722     0FEB                     	;# 
   723     0FED                     	;# 
   724     0FEE                     	;# 
   725     0FEF                     	;# 
   726                           
   727 ;; Function _INT_DefaultInterruptHandler is unused but had its address taken
   728     0000                     
   729 ;; Function _Timer0_Write is unused but had its address taken
   730     0000                     
   731 ;; Function _Timer0_DefaultOverflowCallback is unused but had its address taken
   732     0000                     
   733 ;; Function _Timer0_Tasks is unused but had its address taken
   734     0000                     
   735 ;; Function _Timer0_OverflowCallback is unused but had its address taken
   736     0000                     
   737                           	psect	stringtext1
   738     0800                     __pstringtext1:
   739     0800                     _Timer0:
   740     0800  3420               	retlw	low _Timer0_Initialize
   741     0801  3406               	retlw	high _Timer0_Initialize
   742     0802  3400               	retlw	0
   743     0803  3400               	retlw	0
   744     0804  3400               	retlw	0
   745     0805  3400               	retlw	0
   746     0806  3400               	retlw	0
   747     0807  3400               	retlw	0
   748     0808  3402               	retlw	low _Timer0_OverflowCallbackRegister
   749     0809  3406               	retlw	high _Timer0_OverflowCallbackRegister
   750     080A  3400               	retlw	0
   751     080B  3400               	retlw	0
   752     080C                     __end_of_Timer0:
   753                           
   754                           	psect	stringtext2
   755     080C                     __pstringtext2:
   756     080C                     _SEGMENT_MAP:
   757     080C  34C0               	retlw	192
   758     080D  34F9               	retlw	249
   759     080E  34A4               	retlw	164
   760     080F  34B0               	retlw	176
   761     0810  3499               	retlw	153
   762     0811  3492               	retlw	146
   763     0812  3482               	retlw	130
   764     0813  34F8               	retlw	248
   765     0814  3480               	retlw	128
   766     0815  3490               	retlw	144
   767     0816                     __end_of_SEGMENT_MAP:
   768                           
   769                           	psect	nvBANK0
   770     0030                     __pnvBANK0:
   771     0030                     _Timer0_OverflowCallback@tmr0$F279:
   772     0030                     	ds	2
   773     0032                     _INT_InterruptHandler:
   774     0032                     	ds	2
   775     000C                     _PORTAbits	set	12
   776     0015                     _TMR0	set	21
   777     000B                     _INTCONbits	set	11
   778     0095                     _OPTION_REG	set	149
   779     0099                     _OSCCON	set	153
   780     0095                     _OPTION_REGbits	set	149
   781     0090                     _TRISE	set	144
   782     008E                     _TRISC	set	142
   783     008D                     _TRISB	set	141
   784     008C                     _TRISA	set	140
   785     0116                     _BORCON	set	278
   786     010E                     _LATC	set	270
   787     010D                     _LATB	set	269
   788     010C                     _LATA	set	268
   789     018E                     _ANSELC	set	398
   790     018D                     _ANSELB	set	397
   791     018C                     _ANSELA	set	396
   792     0210                     _WPUE	set	528
   793     020D                     _WPUB	set	525
   794     0396                     _IOCBF	set	918
   795     0395                     _IOCBN	set	917
   796     0394                     _IOCBP	set	916
   797                           
   798                           	psect	cinit
   799     07F2                     start_initialization:	
   800                           ; #config settings
   801                           
   802     07F2                     __initialization:
   803                           
   804                           ; Clear objects allocated to COMMON
   805     07F2  01FD               	clrf	__pbssCOMMON& (0+127)
   806                           
   807                           ; Clear objects allocated to BANK0
   808     07F3  0020               	movlb	0	; select bank0
   809     07F4  01A0               	clrf	__pbssBANK0& (0+127)
   810     07F5  01A1               	clrf	(__pbssBANK0+1)& (0+127)
   811     07F6  01A2               	clrf	(__pbssBANK0+2)& (0+127)
   812     07F7  01A3               	clrf	(__pbssBANK0+3)& (0+127)
   813     07F8  01A4               	clrf	(__pbssBANK0+4)& (0+127)
   814     07F9  01A5               	clrf	(__pbssBANK0+5)& (0+127)
   815     07FA  01A6               	clrf	(__pbssBANK0+6)& (0+127)
   816     07FB  01A7               	clrf	(__pbssBANK0+7)& (0+127)
   817     07FC  01A8               	clrf	(__pbssBANK0+8)& (0+127)
   818     07FD                     end_of_initialization:	
   819                           ;End of C runtime variable initialization code
   820                           
   821     07FD                     __end_of__initialization:
   822     07FD  0020               	movlb	0
   823     07FE  3187  2F03         	ljmp	_main	;jump to C main() function
   824                           
   825                           	psect	bssCOMMON
   826     007D                     __pbssCOMMON:
   827     007D                     _minutes:
   828     007D                     	ds	1
   829                           
   830                           	psect	bssBANK0
   831     0020                     __pbssBANK0:
   832     0020                     _digit:
   833     0020                     	ds	4
   834     0024                     Timer0_OverflowCallback@ms_count:
   835     0024                     	ds	2
   836     0026                     _timer_running:
   837     0026                     	ds	1
   838     0027                     _seconds:
   839     0027                     	ds	1
   840     0028                     _timer0ReloadVal:
   841     0028                     	ds	1
   842                           
   843                           	psect	cstackCOMMON
   844     0070                     __pcstackCOMMON:
   845     0070                     ?_CLOCK_Initialize:
   846     0070                     ??_CLOCK_Initialize:	
   847                           ; 1 bytes @ 0x0
   848                           
   849     0070                     ?_PIN_MANAGER_Initialize:	
   850                           ; 1 bytes @ 0x0
   851                           
   852     0070                     ??_PIN_MANAGER_Initialize:	
   853                           ; 1 bytes @ 0x0
   854                           
   855     0070                     ?_Timer0_Initialize:	
   856                           ; 1 bytes @ 0x0
   857                           
   858     0070                     ?_INTERRUPT_Initialize:	
   859                           ; 1 bytes @ 0x0
   860                           
   861     0070                     ?_INT_SetInterruptHandler:	
   862                           ; 1 bytes @ 0x0
   863                           
   864     0070                     ?_Timer0_OverflowCallbackRegister:	
   865                           ; 1 bytes @ 0x0
   866                           
   867     0070                     ?_SYSTEM_Initialize:	
   868                           ; 1 bytes @ 0x0
   869                           
   870     0070                     ?_main:	
   871                           ; 1 bytes @ 0x0
   872                           
   873     0070                     ?___awdiv:	
   874                           ; 2 bytes @ 0x0
   875                           
   876     0070                     ?___awmod:	
   877                           ; 2 bytes @ 0x0
   878                           
   879     0070                     INT_SetInterruptHandler@InterruptHandler:	
   880                           ; 2 bytes @ 0x0
   881                           
   882     0070                     Timer0_OverflowCallbackRegister@CallbackHandler:	
   883                           ; 2 bytes @ 0x0
   884                           
   885     0070                     ___awdiv@divisor:	
   886                           ; 2 bytes @ 0x0
   887                           
   888     0070                     ___awmod@divisor:	
   889                           ; 2 bytes @ 0x0
   890                           
   891                           
   892                           ; 2 bytes @ 0x0
   893     0070                     	ds	2
   894     0072                     ??_Timer0_Initialize:
   895     0072                     ??_INTERRUPT_Initialize:	
   896                           ; 1 bytes @ 0x2
   897                           
   898     0072                     ??_INT_SetInterruptHandler:	
   899                           ; 1 bytes @ 0x2
   900                           
   901     0072                     ??_Timer0_OverflowCallbackRegister:	
   902                           ; 1 bytes @ 0x2
   903                           
   904     0072                     ??_SYSTEM_Initialize:	
   905                           ; 1 bytes @ 0x2
   906                           
   907     0072                     ___awdiv@dividend:	
   908                           ; 1 bytes @ 0x2
   909                           
   910     0072                     ___awmod@dividend:	
   911                           ; 2 bytes @ 0x2
   912                           
   913                           
   914                           ; 2 bytes @ 0x2
   915     0072                     	ds	2
   916     0074                     ??___awdiv:
   917     0074                     ??___awmod:	
   918                           ; 1 bytes @ 0x4
   919                           
   920                           
   921                           ; 1 bytes @ 0x4
   922     0074                     	ds	1
   923     0075                     ___awdiv@counter:
   924     0075                     ___awmod@counter:	
   925                           ; 1 bytes @ 0x5
   926                           
   927                           
   928                           ; 1 bytes @ 0x5
   929     0075                     	ds	1
   930     0076                     ___awdiv@sign:
   931     0076                     ___awmod@sign:	
   932                           ; 1 bytes @ 0x6
   933                           
   934                           
   935                           ; 1 bytes @ 0x6
   936     0076                     	ds	1
   937     0077                     ___awdiv@quotient:
   938                           
   939                           ; 2 bytes @ 0x7
   940     0077                     	ds	2
   941     0079                     ?_displayDigits:
   942     0079                     displayDigits@seconds:	
   943                           ; 1 bytes @ 0x9
   944                           
   945                           
   946                           ; 1 bytes @ 0x9
   947     0079                     	ds	1
   948     007A                     ??_displayDigits:
   949                           
   950                           ; 1 bytes @ 0xA
   951     007A                     	ds	2
   952     007C                     ??_main:
   953                           
   954                           ; 1 bytes @ 0xC
   955     007C                     	ds	1
   956                           
   957                           	psect	cstackBANK0
   958     0029                     __pcstackBANK0:
   959     0029                     displayDigits@digit:
   960                           
   961                           ; 4 bytes @ 0x0
   962     0029                     	ds	4
   963     002D                     displayDigits@minutes:
   964                           
   965                           ; 1 bytes @ 0x4
   966     002D                     	ds	1
   967     002E                     displayDigits@i:
   968                           
   969                           ; 2 bytes @ 0x5
   970     002E                     	ds	2
   971                           
   972                           	psect	maintext
   973     0703                     __pmaintext:	
   974 ;;
   975 ;;Main: autosize = 0, tempsize = 1, incstack = 0, save=0
   976 ;;
   977 ;; *************** function _main *****************
   978 ;; Defined at:
   979 ;;		line 105 in file "main.c"
   980 ;; Parameters:    Size  Location     Type
   981 ;;		None
   982 ;; Auto vars:     Size  Location     Type
   983 ;;		None
   984 ;; Return value:  Size  Location     Type
   985 ;;                  2  177[None  ] int 
   986 ;; Registers used:
   987 ;;		wreg, fsr0l, fsr0h, fsr1l, fsr1h, status,2, status,0, pclath, cstack
   988 ;; Tracked objects:
   989 ;;		On entry : B1F/0
   990 ;;		On exit  : 0/0
   991 ;;		Unchanged: 0/0
   992 ;; Data sizes:     COMMON   BANK0   BANK1   BANK2   BANK3   BANK4   BANK5   BANK6   BANK7   BANK8   BANK9  BANK10  BANK1
      +1  BANK12
   993 ;;      Params:         0       0       0       0       0       0       0       0       0       0       0       0       
      +0       0
   994 ;;      Locals:         0       0       0       0       0       0       0       0       0       0       0       0       
      +0       0
   995 ;;      Temps:          1       0       0       0       0       0       0       0       0       0       0       0       
      +0       0
   996 ;;      Totals:         1       0       0       0       0       0       0       0       0       0       0       0       
      +0       0
   997 ;;Total ram usage:        1 bytes
   998 ;; Hardware stack levels required when called: 3
   999 ;; This function calls:
  1000 ;;		_SYSTEM_Initialize
  1001 ;;		_Timer0_OverflowCallbackRegister
  1002 ;;		_displayDigits
  1003 ;; This function is called by:
  1004 ;;		Startup code after reset
  1005 ;; This function uses a non-reentrant model
  1006 ;;
  1007                           
  1008     0703                     _main:	
  1009                           ;psect for function _main
  1010                           
  1011     0703                     l1144:	
  1012                           ;incstack = 0
  1013                           ; Regs used in _main: [wreg-fsr1h+status,2+status,0+pclath+cstack]
  1014                           
  1015                           
  1016                           ;main.c: 106:     SYSTEM_Initialize();
  1017     0703  3186  2613  3187   	fcall	_SYSTEM_Initialize
  1018     0706                     l1146:
  1019                           
  1020                           ;main.c: 109:     (INTCONbits.GIE = 1);
  1021     0706  178B               	bsf	11,7	;volatile
  1022     0707                     l1148:
  1023                           
  1024                           ;main.c: 112:     (INTCONbits.PEIE = 1);
  1025     0707  170B               	bsf	11,6	;volatile
  1026                           
  1027                           ;main.c: 115:     Timer0_OverflowCallbackRegister(Timer0_OverflowCallback);
  1028     0708  3000               	movlw	0
  1029     0709  00F0               	movwf	Timer0_OverflowCallbackRegister@CallbackHandler
  1030     070A  3000               	movlw	0
  1031     070B  00F1               	movwf	Timer0_OverflowCallbackRegister@CallbackHandler+1
  1032     070C  3186  2602  3187   	fcall	_Timer0_OverflowCallbackRegister
  1033     070F                     l1150:
  1034                           
  1035                           ;main.c: 118:         if (PORTAbits.RA0 == 0 && !timer_running) {
  1036     070F  0020               	movlb	0	; select bank0
  1037     0710  180C               	btfsc	12,0	;volatile
  1038     0711  2F13               	goto	u671
  1039     0712  2F14               	goto	u670
  1040     0713                     u671:
  1041     0713  2F31               	goto	l1164
  1042     0714                     u670:
  1043     0714                     l1152:
  1044     0714  0826               	movf	_timer_running,w
  1045     0715  1D03               	btfss	3,2
  1046     0716  2F18               	goto	u681
  1047     0717  2F19               	goto	u680
  1048     0718                     u681:
  1049     0718  2F31               	goto	l1164
  1050     0719                     u680:
  1051     0719                     l1154:
  1052                           
  1053                           ;main.c: 119:             _delay((unsigned long)((20)*(20000000/4000.0)));
  1054     0719  3082               	movlw	130
  1055     071A  00FC               	movwf	??_main
  1056     071B  30DE               	movlw	222
  1057     071C                     u797:
  1058     071C  0B89               	decfsz	9,f
  1059     071D  2F1C               	goto	u797
  1060     071E  0BFC               	decfsz	??_main,f
  1061     071F  2F1C               	goto	u797
  1062     0720                     l1156:
  1063                           
  1064                           ;main.c: 120:             if (PORTAbits.RA0 == 0) {
  1065     0720  0020               	movlb	0	; select bank0
  1066     0721  180C               	btfsc	12,0	;volatile
  1067     0722  2F24               	goto	u691
  1068     0723  2F25               	goto	u690
  1069     0724                     u691:
  1070     0724  2F31               	goto	l1164
  1071     0725                     u690:
  1072     0725                     l1158:
  1073                           
  1074                           ;main.c: 121:                 minutes++;
  1075     0725  3001               	movlw	1
  1076     0726  00FC               	movwf	??_main
  1077     0727  087C               	movf	??_main,w
  1078     0728  07FD               	addwf	_minutes,f
  1079     0729                     l1160:
  1080                           
  1081                           ;main.c: 122:                 if (minutes > 99) {
  1082     0729  3064               	movlw	100
  1083     072A  027D               	subwf	_minutes,w
  1084     072B  1C03               	skipc
  1085     072C  2F2E               	goto	u701
  1086     072D  2F2F               	goto	u700
  1087     072E                     u701:
  1088     072E  2F31               	goto	l1164
  1089     072F                     u700:
  1090     072F                     l1162:
  1091                           
  1092                           ;main.c: 123:                     minutes = 99;
  1093     072F  3063               	movlw	99
  1094     0730  00FD               	movwf	_minutes
  1095     0731                     l1164:
  1096                           
  1097                           ;main.c: 128:         if (PORTAbits.RA1 == 0 && !timer_running) {
  1098     0731  188C               	btfsc	12,1	;volatile
  1099     0732  2F34               	goto	u711
  1100     0733  2F35               	goto	u710
  1101     0734                     u711:
  1102     0734  2F4D               	goto	l1176
  1103     0735                     u710:
  1104     0735                     l1166:
  1105     0735  0826               	movf	_timer_running,w
  1106     0736  1D03               	btfss	3,2
  1107     0737  2F39               	goto	u721
  1108     0738  2F3A               	goto	u720
  1109     0739                     u721:
  1110     0739  2F4D               	goto	l1176
  1111     073A                     u720:
  1112     073A                     l1168:
  1113                           
  1114                           ;main.c: 129:             _delay((unsigned long)((20)*(20000000/4000.0)));
  1115     073A  3082               	movlw	130
  1116     073B  00FC               	movwf	??_main
  1117     073C  30DE               	movlw	222
  1118     073D                     u807:
  1119     073D  0B89               	decfsz	9,f
  1120     073E  2F3D               	goto	u807
  1121     073F  0BFC               	decfsz	??_main,f
  1122     0740  2F3D               	goto	u807
  1123     0741                     l1170:
  1124                           
  1125                           ;main.c: 130:             if (PORTAbits.RA1 == 0) {
  1126     0741  0020               	movlb	0	; select bank0
  1127     0742  188C               	btfsc	12,1	;volatile
  1128     0743  2F45               	goto	u731
  1129     0744  2F46               	goto	u730
  1130     0745                     u731:
  1131     0745  2F4D               	goto	l1176
  1132     0746                     u730:
  1133     0746                     l1172:
  1134                           
  1135                           ;main.c: 131:                 if (minutes > 0) {
  1136     0746  087D               	movf	_minutes,w
  1137     0747  1903               	btfsc	3,2
  1138     0748  2F4A               	goto	u741
  1139     0749  2F4B               	goto	u740
  1140     074A                     u741:
  1141     074A  2F4D               	goto	l1176
  1142     074B                     u740:
  1143     074B                     l1174:
  1144                           
  1145                           ;main.c: 132:                     minutes--;
  1146     074B  3001               	movlw	1
  1147     074C  02FD               	subwf	_minutes,f
  1148     074D                     l1176:
  1149                           
  1150                           ;main.c: 137:         if (PORTAbits.RA2 == 0) {
  1151     074D  190C               	btfsc	12,2	;volatile
  1152     074E  2F50               	goto	u751
  1153     074F  2F51               	goto	u750
  1154     0750                     u751:
  1155     0750  2F68               	goto	l1186
  1156     0751                     u750:
  1157     0751                     l1178:
  1158                           
  1159                           ;main.c: 138:             _delay((unsigned long)((20)*(20000000/4000.0)));
  1160     0751  3082               	movlw	130
  1161     0752  00FC               	movwf	??_main
  1162     0753  30DE               	movlw	222
  1163     0754                     u817:
  1164     0754  0B89               	decfsz	9,f
  1165     0755  2F54               	goto	u817
  1166     0756  0BFC               	decfsz	??_main,f
  1167     0757  2F54               	goto	u817
  1168     0758                     l1180:
  1169                           
  1170                           ;main.c: 139:             if (PORTAbits.RA2 == 0 && !timer_running) {
  1171     0758  0020               	movlb	0	; select bank0
  1172     0759  190C               	btfsc	12,2	;volatile
  1173     075A  2F5C               	goto	u761
  1174     075B  2F5D               	goto	u760
  1175     075C                     u761:
  1176     075C  2F68               	goto	l1186
  1177     075D                     u760:
  1178     075D                     l1182:
  1179     075D  0826               	movf	_timer_running,w
  1180     075E  1D03               	btfss	3,2
  1181     075F  2F61               	goto	u771
  1182     0760  2F62               	goto	u770
  1183     0761                     u771:
  1184     0761  2F68               	goto	l1186
  1185     0762                     u770:
  1186     0762                     l1184:
  1187                           
  1188                           ;main.c: 140:                 timer_running = 1;
  1189     0762  01A6               	clrf	_timer_running
  1190     0763  0AA6               	incf	_timer_running,f
  1191     0764                     l187:	
  1192                           ;main.c: 141:                 while (PORTAbits.RA2 == 0);
  1193                           
  1194     0764  1D0C               	btfss	12,2	;volatile
  1195     0765  2F67               	goto	u781
  1196     0766  2F68               	goto	u780
  1197     0767                     u781:
  1198     0767  2F64               	goto	l187
  1199     0768                     u780:
  1200     0768                     l1186:
  1201                           
  1202                           ;main.c: 146:         displayDigits(minutes, seconds);
  1203     0768  0827               	movf	_seconds,w
  1204     0769  00F9               	movwf	displayDigits@seconds
  1205     076A  087D               	movf	_minutes,w
  1206     076B  3187  2771  3187   	fcall	_displayDigits
  1207     076E  2F0F               	goto	l1150
  1208     076F  3180  2802         	ljmp	start
  1209     0771                     __end_of_main:
  1210                           
  1211                           	psect	text1
  1212     0771                     __ptext1:	
  1213 ;; *************** function _displayDigits *****************
  1214 ;; Defined at:
  1215 ;;		line 61 in file "main.c"
  1216 ;; Parameters:    Size  Location     Type
  1217 ;;  minutes         1    wreg     unsigned char 
  1218 ;;  seconds         1    9[COMMON] unsigned char 
  1219 ;; Auto vars:     Size  Location     Type
  1220 ;;  minutes         1    4[BANK0 ] unsigned char 
  1221 ;;  i               2    5[BANK0 ] int 
  1222 ;;  digit           4    0[BANK0 ] unsigned char [4]
  1223 ;; Return value:  Size  Location     Type
  1224 ;;                  1    wreg      void 
  1225 ;; Registers used:
  1226 ;;		wreg, fsr0l, fsr0h, fsr1l, fsr1h, status,2, status,0, pclath, cstack
  1227 ;; Tracked objects:
  1228 ;;		On entry : 0/0
  1229 ;;		On exit  : 0/0
  1230 ;;		Unchanged: 0/0
  1231 ;; Data sizes:     COMMON   BANK0   BANK1   BANK2   BANK3   BANK4   BANK5   BANK6   BANK7   BANK8   BANK9  BANK10  BANK1
      +1  BANK12
  1232 ;;      Params:         1       0       0       0       0       0       0       0       0       0       0       0       
      +0       0
  1233 ;;      Locals:         0       7       0       0       0       0       0       0       0       0       0       0       
      +0       0
  1234 ;;      Temps:          2       0       0       0       0       0       0       0       0       0       0       0       
      +0       0
  1235 ;;      Totals:         3       7       0       0       0       0       0       0       0       0       0       0       
      +0       0
  1236 ;;Total ram usage:       10 bytes
  1237 ;; Hardware stack levels used: 1
  1238 ;; Hardware stack levels required when called: 1
  1239 ;; This function calls:
  1240 ;;		___awdiv
  1241 ;;		___awmod
  1242 ;; This function is called by:
  1243 ;;		_main
  1244 ;; This function uses a non-reentrant model
  1245 ;;
  1246                           
  1247     0771                     _displayDigits:	
  1248                           ;psect for function _displayDigits
  1249                           
  1250                           
  1251                           ;incstack = 0
  1252                           ; Regs used in _displayDigits: [wreg-fsr1h+status,2+status,0+pclath+cstack]
  1253                           ;displayDigits@minutes stored from wreg
  1254     0771  0020               	movlb	0	; select bank0
  1255     0772  00AD               	movwf	displayDigits@minutes
  1256     0773                     l1088:
  1257                           
  1258                           ;main.c: 62:     uint8_t digit[4];;main.c: 63:     digit[0] = minutes / 10;
  1259     0773  300A               	movlw	10
  1260     0774  00F0               	movwf	___awdiv@divisor
  1261     0775  3000               	movlw	0
  1262     0776  00F1               	movwf	___awdiv@divisor+1
  1263     0777  082D               	movf	displayDigits@minutes,w
  1264     0778  00FA               	movwf	??_displayDigits
  1265     0779  01FB               	clrf	??_displayDigits+1
  1266     077A  087A               	movf	??_displayDigits,w
  1267     077B  00F2               	movwf	___awdiv@dividend
  1268     077C  087B               	movf	??_displayDigits+1,w
  1269     077D  00F3               	movwf	___awdiv@dividend+1
  1270     077E  3186  26A4  3187   	fcall	___awdiv
  1271     0781  0870               	movf	?___awdiv,w
  1272     0782  0020               	movlb	0	; select bank0
  1273     0783  00A9               	movwf	displayDigits@digit
  1274                           
  1275                           ;main.c: 64:     digit[1] = minutes % 10;
  1276     0784  300A               	movlw	10
  1277     0785  00F0               	movwf	___awmod@divisor
  1278     0786  3000               	movlw	0
  1279     0787  00F1               	movwf	___awmod@divisor+1
  1280     0788  082D               	movf	displayDigits@minutes,w
  1281     0789  00FA               	movwf	??_displayDigits
  1282     078A  01FB               	clrf	??_displayDigits+1
  1283     078B  087A               	movf	??_displayDigits,w
  1284     078C  00F2               	movwf	___awmod@dividend
  1285     078D  087B               	movf	??_displayDigits+1,w
  1286     078E  00F3               	movwf	___awmod@dividend+1
  1287     078F  3186  2651  3187   	fcall	___awmod
  1288     0792  0870               	movf	?___awmod,w
  1289     0793  0020               	movlb	0	; select bank0
  1290     0794  00AA               	movwf	displayDigits@digit+1
  1291                           
  1292                           ;main.c: 65:     digit[2] = seconds / 10;
  1293     0795  300A               	movlw	10
  1294     0796  00F0               	movwf	___awdiv@divisor
  1295     0797  3000               	movlw	0
  1296     0798  00F1               	movwf	___awdiv@divisor+1
  1297     0799  0879               	movf	displayDigits@seconds,w
  1298     079A  00FA               	movwf	??_displayDigits
  1299     079B  01FB               	clrf	??_displayDigits+1
  1300     079C  087A               	movf	??_displayDigits,w
  1301     079D  00F2               	movwf	___awdiv@dividend
  1302     079E  087B               	movf	??_displayDigits+1,w
  1303     079F  00F3               	movwf	___awdiv@dividend+1
  1304     07A0  3186  26A4  3187   	fcall	___awdiv
  1305     07A3  0870               	movf	?___awdiv,w
  1306     07A4  0020               	movlb	0	; select bank0
  1307     07A5  00AB               	movwf	displayDigits@digit+2
  1308                           
  1309                           ;main.c: 66:     digit[3] = seconds % 10;
  1310     07A6  300A               	movlw	10
  1311     07A7  00F0               	movwf	___awmod@divisor
  1312     07A8  3000               	movlw	0
  1313     07A9  00F1               	movwf	___awmod@divisor+1
  1314     07AA  0879               	movf	displayDigits@seconds,w
  1315     07AB  00FA               	movwf	??_displayDigits
  1316     07AC  01FB               	clrf	??_displayDigits+1
  1317     07AD  087A               	movf	??_displayDigits,w
  1318     07AE  00F2               	movwf	___awmod@dividend
  1319     07AF  087B               	movf	??_displayDigits+1,w
  1320     07B0  00F3               	movwf	___awmod@dividend+1
  1321     07B1  3186  2651  3187   	fcall	___awmod
  1322     07B4  0870               	movf	?___awmod,w
  1323     07B5  0020               	movlb	0	; select bank0
  1324     07B6  00AC               	movwf	displayDigits@digit+3
  1325     07B7                     l1090:
  1326                           
  1327                           ;main.c: 68:     for (int i = 0; i < 4; i++) {
  1328     07B7  01AE               	clrf	displayDigits@i
  1329     07B8  01AF               	clrf	displayDigits@i+1
  1330     07B9                     l1092:
  1331     07B9  082F               	movf	displayDigits@i+1,w
  1332     07BA  3A80               	xorlw	128
  1333     07BB  00FA               	movwf	??_displayDigits
  1334     07BC  3080               	movlw	128
  1335     07BD  027A               	subwf	??_displayDigits,w
  1336     07BE  1D03               	skipz
  1337     07BF  2FC2               	goto	u595
  1338     07C0  3004               	movlw	4
  1339     07C1  022E               	subwf	displayDigits@i,w
  1340     07C2                     u595:
  1341     07C2  1C03               	skipc
  1342     07C3  2FC5               	goto	u591
  1343     07C4  2FC6               	goto	u590
  1344     07C5                     u591:
  1345     07C5  2FC7               	goto	l1096
  1346     07C6                     u590:
  1347     07C6  2FF1               	goto	l162
  1348     07C7                     l1096:
  1349                           
  1350                           ;main.c: 69:         LATC = SEGMENT_MAP[digit[i]];
  1351     07C7  0020               	movlb	0	; select bank0
  1352     07C8  082E               	movf	displayDigits@i,w
  1353     07C9  3E29               	addlw	(low (displayDigits@digit| 0))& (0+255)
  1354     07CA  0086               	movwf	6
  1355     07CB  0187               	clrf	7
  1356     07CC  0801               	movf	1,w
  1357     07CD  3E0C               	addlw	low (_SEGMENT_MAP| (0+32768))
  1358     07CE  0084               	movwf	4
  1359     07CF  3088               	movlw	high (_SEGMENT_MAP| (0+32768))
  1360     07D0  1803               	skipnc
  1361     07D1  3E01               	addlw	1
  1362     07D2  0085               	movwf	5
  1363     07D3  0800               	movf	0,w	;code access
  1364     07D4  0022               	movlb	2	; select bank2
  1365     07D5  008E               	movwf	14	;volatile
  1366     07D6                     l1098:
  1367                           
  1368                           ;main.c: 70:         LATB = (1 << i);
  1369     07D6  3001               	movlw	1
  1370     07D7  00FA               	movwf	??_displayDigits
  1371     07D8  0020               	movlb	0	; select bank0
  1372     07D9  0A2E               	incf	displayDigits@i,w
  1373     07DA  2FDC               	goto	u604
  1374     07DB                     u605:
  1375     07DB  35FA               	lslf	??_displayDigits,f
  1376     07DC                     u604:
  1377     07DC  0B89               	decfsz	9,f
  1378     07DD  2FDB               	goto	u605
  1379     07DE  087A               	movf	??_displayDigits,w
  1380     07DF  0022               	movlb	2	; select bank2
  1381     07E0  008D               	movwf	13	;volatile
  1382     07E1                     l1100:
  1383                           
  1384                           ;main.c: 71:         _delay((unsigned long)((1)*(20000000/4000.0)));
  1385     07E1  3007               	movlw	7
  1386     07E2  00FA               	movwf	??_displayDigits
  1387     07E3  307D               	movlw	125
  1388     07E4                     u827:
  1389     07E4  0B89               	decfsz	9,f
  1390     07E5  2FE4               	goto	u827
  1391     07E6  0BFA               	decfsz	??_displayDigits,f
  1392     07E7  2FE4               	goto	u827
  1393     07E8  0000               	nop
  1394     07E9                     l1102:
  1395                           
  1396                           ;main.c: 72:         LATB = 0;
  1397     07E9  0022               	movlb	2	; select bank2
  1398     07EA  018D               	clrf	13	;volatile
  1399     07EB                     l1104:
  1400                           
  1401                           ;main.c: 73:     }
  1402     07EB  3001               	movlw	1
  1403     07EC  0020               	movlb	0	; select bank0
  1404     07ED  07AE               	addwf	displayDigits@i,f
  1405     07EE  3000               	movlw	0
  1406     07EF  3DAF               	addwfc	displayDigits@i+1,f
  1407     07F0  2FB9               	goto	l1092
  1408     07F1                     l162:
  1409     07F1  0008               	return
  1410     07F2                     __end_of_displayDigits:
  1411                           
  1412                           	psect	text2
  1413     0651                     __ptext2:	
  1414 ;; *************** function ___awmod *****************
  1415 ;; Defined at:
  1416 ;;		line 5 in file "C:\Program Files\Microchip\xc8\v2.46\pic\sources\c99\common\awmod.c"
  1417 ;; Parameters:    Size  Location     Type
  1418 ;;  divisor         2    0[COMMON] int 
  1419 ;;  dividend        2    2[COMMON] int 
  1420 ;; Auto vars:     Size  Location     Type
  1421 ;;  sign            1    6[COMMON] unsigned char 
  1422 ;;  counter         1    5[COMMON] unsigned char 
  1423 ;; Return value:  Size  Location     Type
  1424 ;;                  2    0[COMMON] int 
  1425 ;; Registers used:
  1426 ;;		wreg, status,2, status,0
  1427 ;; Tracked objects:
  1428 ;;		On entry : 0/0
  1429 ;;		On exit  : 0/0
  1430 ;;		Unchanged: 0/0
  1431 ;; Data sizes:     COMMON   BANK0   BANK1   BANK2   BANK3   BANK4   BANK5   BANK6   BANK7   BANK8   BANK9  BANK10  BANK1
      +1  BANK12
  1432 ;;      Params:         4       0       0       0       0       0       0       0       0       0       0       0       
      +0       0
  1433 ;;      Locals:         2       0       0       0       0       0       0       0       0       0       0       0       
      +0       0
  1434 ;;      Temps:          1       0       0       0       0       0       0       0       0       0       0       0       
      +0       0
  1435 ;;      Totals:         7       0       0       0       0       0       0       0       0       0       0       0       
      +0       0
  1436 ;;Total ram usage:        7 bytes
  1437 ;; Hardware stack levels used: 1
  1438 ;; This function calls:
  1439 ;;		Nothing
  1440 ;; This function is called by:
  1441 ;;		_displayDigits
  1442 ;; This function uses a non-reentrant model
  1443 ;;
  1444                           
  1445     0651                     ___awmod:	
  1446                           ;psect for function ___awmod
  1447                           
  1448     0651                     l1048:	
  1449                           ;incstack = 0
  1450                           ; Regs used in ___awmod: [wreg+status,2+status,0]
  1451                           
  1452     0651  01F6               	clrf	___awmod@sign
  1453     0652                     l1050:
  1454     0652  1FF3               	btfss	___awmod@dividend+1,7
  1455     0653  2E55               	goto	u501
  1456     0654  2E56               	goto	u500
  1457     0655                     u501:
  1458     0655  2E5D               	goto	l1056
  1459     0656                     u500:
  1460     0656                     l1052:
  1461     0656  09F2               	comf	___awmod@dividend,f
  1462     0657  09F3               	comf	___awmod@dividend+1,f
  1463     0658  0AF2               	incf	___awmod@dividend,f
  1464     0659  1903               	skipnz
  1465     065A  0AF3               	incf	___awmod@dividend+1,f
  1466     065B                     l1054:
  1467     065B  01F6               	clrf	___awmod@sign
  1468     065C  0AF6               	incf	___awmod@sign,f
  1469     065D                     l1056:
  1470     065D  1FF1               	btfss	___awmod@divisor+1,7
  1471     065E  2E60               	goto	u511
  1472     065F  2E61               	goto	u510
  1473     0660                     u511:
  1474     0660  2E66               	goto	l1060
  1475     0661                     u510:
  1476     0661                     l1058:
  1477     0661  09F0               	comf	___awmod@divisor,f
  1478     0662  09F1               	comf	___awmod@divisor+1,f
  1479     0663  0AF0               	incf	___awmod@divisor,f
  1480     0664  1903               	skipnz
  1481     0665  0AF1               	incf	___awmod@divisor+1,f
  1482     0666                     l1060:
  1483     0666  0870               	movf	___awmod@divisor,w
  1484     0667  0471               	iorwf	___awmod@divisor+1,w
  1485     0668  1903               	btfsc	3,2
  1486     0669  2E6B               	goto	u521
  1487     066A  2E6C               	goto	u520
  1488     066B                     u521:
  1489     066B  2E95               	goto	l1078
  1490     066C                     u520:
  1491     066C                     l1062:
  1492     066C  01F5               	clrf	___awmod@counter
  1493     066D  0AF5               	incf	___awmod@counter,f
  1494     066E  2E78               	goto	l1068
  1495     066F                     l1064:
  1496     066F  3001               	movlw	1
  1497     0670                     u535:
  1498     0670  35F0               	lslf	___awmod@divisor,f
  1499     0671  0DF1               	rlf	___awmod@divisor+1,f
  1500     0672  0B89               	decfsz	9,f
  1501     0673  2E70               	goto	u535
  1502     0674                     l1066:
  1503     0674  3001               	movlw	1
  1504     0675  00F4               	movwf	??___awmod
  1505     0676  0874               	movf	??___awmod,w
  1506     0677  07F5               	addwf	___awmod@counter,f
  1507     0678                     l1068:
  1508     0678  1FF1               	btfss	___awmod@divisor+1,7
  1509     0679  2E7B               	goto	u541
  1510     067A  2E7C               	goto	u540
  1511     067B                     u541:
  1512     067B  2E6F               	goto	l1064
  1513     067C                     u540:
  1514     067C                     l1070:
  1515     067C  0871               	movf	___awmod@divisor+1,w
  1516     067D  0273               	subwf	___awmod@dividend+1,w
  1517     067E  1D03               	skipz
  1518     067F  2E82               	goto	u555
  1519     0680  0870               	movf	___awmod@divisor,w
  1520     0681  0272               	subwf	___awmod@dividend,w
  1521     0682                     u555:
  1522     0682  1C03               	skipc
  1523     0683  2E85               	goto	u551
  1524     0684  2E86               	goto	u550
  1525     0685                     u551:
  1526     0685  2E8A               	goto	l1074
  1527     0686                     u550:
  1528     0686                     l1072:
  1529     0686  0870               	movf	___awmod@divisor,w
  1530     0687  02F2               	subwf	___awmod@dividend,f
  1531     0688  0871               	movf	___awmod@divisor+1,w
  1532     0689  3BF3               	subwfb	___awmod@dividend+1,f
  1533     068A                     l1074:
  1534     068A  3001               	movlw	1
  1535     068B                     u565:
  1536     068B  36F1               	lsrf	___awmod@divisor+1,f
  1537     068C  0CF0               	rrf	___awmod@divisor,f
  1538     068D  0B89               	decfsz	9,f
  1539     068E  2E8B               	goto	u565
  1540     068F                     l1076:
  1541     068F  3001               	movlw	1
  1542     0690  02F5               	subwf	___awmod@counter,f
  1543     0691  1D03               	btfss	3,2
  1544     0692  2E94               	goto	u571
  1545     0693  2E95               	goto	u570
  1546     0694                     u571:
  1547     0694  2E7C               	goto	l1070
  1548     0695                     u570:
  1549     0695                     l1078:
  1550     0695  0876               	movf	___awmod@sign,w
  1551     0696  1903               	btfsc	3,2
  1552     0697  2E99               	goto	u581
  1553     0698  2E9A               	goto	u580
  1554     0699                     u581:
  1555     0699  2E9F               	goto	l1082
  1556     069A                     u580:
  1557     069A                     l1080:
  1558     069A  09F2               	comf	___awmod@dividend,f
  1559     069B  09F3               	comf	___awmod@dividend+1,f
  1560     069C  0AF2               	incf	___awmod@dividend,f
  1561     069D  1903               	skipnz
  1562     069E  0AF3               	incf	___awmod@dividend+1,f
  1563     069F                     l1082:
  1564     069F  0873               	movf	___awmod@dividend+1,w
  1565     06A0  00F1               	movwf	?___awmod+1
  1566     06A1  0872               	movf	___awmod@dividend,w
  1567     06A2  00F0               	movwf	?___awmod
  1568     06A3                     l426:
  1569     06A3  0008               	return
  1570     06A4                     __end_of___awmod:
  1571                           
  1572                           	psect	text3
  1573     06A4                     __ptext3:	
  1574 ;; *************** function ___awdiv *****************
  1575 ;; Defined at:
  1576 ;;		line 5 in file "C:\Program Files\Microchip\xc8\v2.46\pic\sources\c99\common\awdiv.c"
  1577 ;; Parameters:    Size  Location     Type
  1578 ;;  divisor         2    0[COMMON] int 
  1579 ;;  dividend        2    2[COMMON] int 
  1580 ;; Auto vars:     Size  Location     Type
  1581 ;;  quotient        2    7[COMMON] int 
  1582 ;;  sign            1    6[COMMON] unsigned char 
  1583 ;;  counter         1    5[COMMON] unsigned char 
  1584 ;; Return value:  Size  Location     Type
  1585 ;;                  2    0[COMMON] int 
  1586 ;; Registers used:
  1587 ;;		wreg, status,2, status,0
  1588 ;; Tracked objects:
  1589 ;;		On entry : 0/0
  1590 ;;		On exit  : 0/0
  1591 ;;		Unchanged: 0/0
  1592 ;; Data sizes:     COMMON   BANK0   BANK1   BANK2   BANK3   BANK4   BANK5   BANK6   BANK7   BANK8   BANK9  BANK10  BANK1
      +1  BANK12
  1593 ;;      Params:         4       0       0       0       0       0       0       0       0       0       0       0       
      +0       0
  1594 ;;      Locals:         4       0       0       0       0       0       0       0       0       0       0       0       
      +0       0
  1595 ;;      Temps:          1       0       0       0       0       0       0       0       0       0       0       0       
      +0       0
  1596 ;;      Totals:         9       0       0       0       0       0       0       0       0       0       0       0       
      +0       0
  1597 ;;Total ram usage:        9 bytes
  1598 ;; Hardware stack levels used: 1
  1599 ;; This function calls:
  1600 ;;		Nothing
  1601 ;; This function is called by:
  1602 ;;		_displayDigits
  1603 ;; This function uses a non-reentrant model
  1604 ;;
  1605                           
  1606     06A4                     ___awdiv:	
  1607                           ;psect for function ___awdiv
  1608                           
  1609     06A4                     l1004:	
  1610                           ;incstack = 0
  1611                           ; Regs used in ___awdiv: [wreg+status,2+status,0]
  1612                           
  1613     06A4  01F6               	clrf	___awdiv@sign
  1614     06A5                     l1006:
  1615     06A5  1FF1               	btfss	___awdiv@divisor+1,7
  1616     06A6  2EA8               	goto	u401
  1617     06A7  2EA9               	goto	u400
  1618     06A8                     u401:
  1619     06A8  2EB0               	goto	l1012
  1620     06A9                     u400:
  1621     06A9                     l1008:
  1622     06A9  09F0               	comf	___awdiv@divisor,f
  1623     06AA  09F1               	comf	___awdiv@divisor+1,f
  1624     06AB  0AF0               	incf	___awdiv@divisor,f
  1625     06AC  1903               	skipnz
  1626     06AD  0AF1               	incf	___awdiv@divisor+1,f
  1627     06AE                     l1010:
  1628     06AE  01F6               	clrf	___awdiv@sign
  1629     06AF  0AF6               	incf	___awdiv@sign,f
  1630     06B0                     l1012:
  1631     06B0  1FF3               	btfss	___awdiv@dividend+1,7
  1632     06B1  2EB3               	goto	u411
  1633     06B2  2EB4               	goto	u410
  1634     06B3                     u411:
  1635     06B3  2EBD               	goto	l1018
  1636     06B4                     u410:
  1637     06B4                     l1014:
  1638     06B4  09F2               	comf	___awdiv@dividend,f
  1639     06B5  09F3               	comf	___awdiv@dividend+1,f
  1640     06B6  0AF2               	incf	___awdiv@dividend,f
  1641     06B7  1903               	skipnz
  1642     06B8  0AF3               	incf	___awdiv@dividend+1,f
  1643     06B9                     l1016:
  1644     06B9  3001               	movlw	1
  1645     06BA  00F4               	movwf	??___awdiv
  1646     06BB  0874               	movf	??___awdiv,w
  1647     06BC  06F6               	xorwf	___awdiv@sign,f
  1648     06BD                     l1018:
  1649     06BD  01F7               	clrf	___awdiv@quotient
  1650     06BE  01F8               	clrf	___awdiv@quotient+1
  1651     06BF                     l1020:
  1652     06BF  0870               	movf	___awdiv@divisor,w
  1653     06C0  0471               	iorwf	___awdiv@divisor+1,w
  1654     06C1  1903               	btfsc	3,2
  1655     06C2  2EC4               	goto	u421
  1656     06C3  2EC5               	goto	u420
  1657     06C4                     u421:
  1658     06C4  2EF4               	goto	l1040
  1659     06C5                     u420:
  1660     06C5                     l1022:
  1661     06C5  01F5               	clrf	___awdiv@counter
  1662     06C6  0AF5               	incf	___awdiv@counter,f
  1663     06C7  2ED1               	goto	l1028
  1664     06C8                     l1024:
  1665     06C8  3001               	movlw	1
  1666     06C9                     u435:
  1667     06C9  35F0               	lslf	___awdiv@divisor,f
  1668     06CA  0DF1               	rlf	___awdiv@divisor+1,f
  1669     06CB  0B89               	decfsz	9,f
  1670     06CC  2EC9               	goto	u435
  1671     06CD                     l1026:
  1672     06CD  3001               	movlw	1
  1673     06CE  00F4               	movwf	??___awdiv
  1674     06CF  0874               	movf	??___awdiv,w
  1675     06D0  07F5               	addwf	___awdiv@counter,f
  1676     06D1                     l1028:
  1677     06D1  1FF1               	btfss	___awdiv@divisor+1,7
  1678     06D2  2ED4               	goto	u441
  1679     06D3  2ED5               	goto	u440
  1680     06D4                     u441:
  1681     06D4  2EC8               	goto	l1024
  1682     06D5                     u440:
  1683     06D5                     l1030:
  1684     06D5  3001               	movlw	1
  1685     06D6                     u455:
  1686     06D6  35F7               	lslf	___awdiv@quotient,f
  1687     06D7  0DF8               	rlf	___awdiv@quotient+1,f
  1688     06D8  0B89               	decfsz	9,f
  1689     06D9  2ED6               	goto	u455
  1690     06DA  0871               	movf	___awdiv@divisor+1,w
  1691     06DB  0273               	subwf	___awdiv@dividend+1,w
  1692     06DC  1D03               	skipz
  1693     06DD  2EE0               	goto	u465
  1694     06DE  0870               	movf	___awdiv@divisor,w
  1695     06DF  0272               	subwf	___awdiv@dividend,w
  1696     06E0                     u465:
  1697     06E0  1C03               	skipc
  1698     06E1  2EE3               	goto	u461
  1699     06E2  2EE4               	goto	u460
  1700     06E3                     u461:
  1701     06E3  2EE9               	goto	l1036
  1702     06E4                     u460:
  1703     06E4                     l1032:
  1704     06E4  0870               	movf	___awdiv@divisor,w
  1705     06E5  02F2               	subwf	___awdiv@dividend,f
  1706     06E6  0871               	movf	___awdiv@divisor+1,w
  1707     06E7  3BF3               	subwfb	___awdiv@dividend+1,f
  1708     06E8                     l1034:
  1709     06E8  1477               	bsf	___awdiv@quotient,0
  1710     06E9                     l1036:
  1711     06E9  3001               	movlw	1
  1712     06EA                     u475:
  1713     06EA  36F1               	lsrf	___awdiv@divisor+1,f
  1714     06EB  0CF0               	rrf	___awdiv@divisor,f
  1715     06EC  0B89               	decfsz	9,f
  1716     06ED  2EEA               	goto	u475
  1717     06EE                     l1038:
  1718     06EE  3001               	movlw	1
  1719     06EF  02F5               	subwf	___awdiv@counter,f
  1720     06F0  1D03               	btfss	3,2
  1721     06F1  2EF3               	goto	u481
  1722     06F2  2EF4               	goto	u480
  1723     06F3                     u481:
  1724     06F3  2ED5               	goto	l1030
  1725     06F4                     u480:
  1726     06F4                     l1040:
  1727     06F4  0876               	movf	___awdiv@sign,w
  1728     06F5  1903               	btfsc	3,2
  1729     06F6  2EF8               	goto	u491
  1730     06F7  2EF9               	goto	u490
  1731     06F8                     u491:
  1732     06F8  2EFE               	goto	l1044
  1733     06F9                     u490:
  1734     06F9                     l1042:
  1735     06F9  09F7               	comf	___awdiv@quotient,f
  1736     06FA  09F8               	comf	___awdiv@quotient+1,f
  1737     06FB  0AF7               	incf	___awdiv@quotient,f
  1738     06FC  1903               	skipnz
  1739     06FD  0AF8               	incf	___awdiv@quotient+1,f
  1740     06FE                     l1044:
  1741     06FE  0878               	movf	___awdiv@quotient+1,w
  1742     06FF  00F1               	movwf	?___awdiv+1
  1743     0700  0877               	movf	___awdiv@quotient,w
  1744     0701  00F0               	movwf	?___awdiv
  1745     0702                     l413:
  1746     0702  0008               	return
  1747     0703                     __end_of___awdiv:
  1748                           
  1749                           	psect	text4
  1750     0613                     __ptext4:	
  1751 ;; *************** function _SYSTEM_Initialize *****************
  1752 ;; Defined at:
  1753 ;;		line 39 in file "mcc_generated_files/system/src/system.c"
  1754 ;; Parameters:    Size  Location     Type
  1755 ;;		None
  1756 ;; Auto vars:     Size  Location     Type
  1757 ;;		None
  1758 ;; Return value:  Size  Location     Type
  1759 ;;                  1    wreg      void 
  1760 ;; Registers used:
  1761 ;;		wreg, status,2, status,0, pclath, cstack
  1762 ;; Tracked objects:
  1763 ;;		On entry : 0/0
  1764 ;;		On exit  : 0/0
  1765 ;;		Unchanged: 0/0
  1766 ;; Data sizes:     COMMON   BANK0   BANK1   BANK2   BANK3   BANK4   BANK5   BANK6   BANK7   BANK8   BANK9  BANK10  BANK1
      +1  BANK12
  1767 ;;      Params:         0       0       0       0       0       0       0       0       0       0       0       0       
      +0       0
  1768 ;;      Locals:         0       0       0       0       0       0       0       0       0       0       0       0       
      +0       0
  1769 ;;      Temps:          0       0       0       0       0       0       0       0       0       0       0       0       
      +0       0
  1770 ;;      Totals:         0       0       0       0       0       0       0       0       0       0       0       0       
      +0       0
  1771 ;;Total ram usage:        0 bytes
  1772 ;; Hardware stack levels used: 1
  1773 ;; Hardware stack levels required when called: 2
  1774 ;; This function calls:
  1775 ;;		_CLOCK_Initialize
  1776 ;;		_INTERRUPT_Initialize
  1777 ;;		_PIN_MANAGER_Initialize
  1778 ;;		_Timer0_Initialize
  1779 ;; This function is called by:
  1780 ;;		_main
  1781 ;; This function uses a non-reentrant model
  1782 ;;
  1783                           
  1784     0613                     _SYSTEM_Initialize:	
  1785                           ;psect for function _SYSTEM_Initialize
  1786                           
  1787     0613                     l1086:	
  1788                           ;incstack = 0
  1789                           ; Regs used in _SYSTEM_Initialize: [wreg+status,2+status,0+pclath+cstack]
  1790                           
  1791                           
  1792                           ;mcc_generated_files/system/src/system.c: 41:     CLOCK_Initialize();
  1793     0613  3185  25F6  3186   	fcall	_CLOCK_Initialize
  1794                           
  1795                           ;mcc_generated_files/system/src/system.c: 42:     PIN_MANAGER_Initialize();
  1796     0616  3186  2633  3186   	fcall	_PIN_MANAGER_Initialize
  1797                           
  1798                           ;mcc_generated_files/system/src/system.c: 43:     Timer0_Initialize();
  1799     0619  3186  2620  3186   	fcall	_Timer0_Initialize
  1800                           
  1801                           ;mcc_generated_files/system/src/system.c: 44:     INTERRUPT_Initialize();
  1802     061C  3186  2608  3186   	fcall	_INTERRUPT_Initialize
  1803     061F                     l11:
  1804     061F  0008               	return
  1805     0620                     __end_of_SYSTEM_Initialize:
  1806                           
  1807                           	psect	text5
  1808     0620                     __ptext5:	
  1809 ;; *************** function _Timer0_Initialize *****************
  1810 ;; Defined at:
  1811 ;;		line 50 in file "mcc_generated_files/timer/src/tmr0.c"
  1812 ;; Parameters:    Size  Location     Type
  1813 ;;		None
  1814 ;; Auto vars:     Size  Location     Type
  1815 ;;		None
  1816 ;; Return value:  Size  Location     Type
  1817 ;;                  1    wreg      void 
  1818 ;; Registers used:
  1819 ;;		wreg, status,2, status,0, pclath, cstack
  1820 ;; Tracked objects:
  1821 ;;		On entry : 0/0
  1822 ;;		On exit  : 0/0
  1823 ;;		Unchanged: 0/0
  1824 ;; Data sizes:     COMMON   BANK0   BANK1   BANK2   BANK3   BANK4   BANK5   BANK6   BANK7   BANK8   BANK9  BANK10  BANK1
      +1  BANK12
  1825 ;;      Params:         0       0       0       0       0       0       0       0       0       0       0       0       
      +0       0
  1826 ;;      Locals:         0       0       0       0       0       0       0       0       0       0       0       0       
      +0       0
  1827 ;;      Temps:          0       0       0       0       0       0       0       0       0       0       0       0       
      +0       0
  1828 ;;      Totals:         0       0       0       0       0       0       0       0       0       0       0       0       
      +0       0
  1829 ;;Total ram usage:        0 bytes
  1830 ;; Hardware stack levels used: 1
  1831 ;; Hardware stack levels required when called: 1
  1832 ;; This function calls:
  1833 ;;		_Timer0_OverflowCallbackRegister
  1834 ;; This function is called by:
  1835 ;;		_SYSTEM_Initialize
  1836 ;; This function uses a non-reentrant model
  1837 ;;
  1838                           
  1839     0620                     _Timer0_Initialize:	
  1840                           ;psect for function _Timer0_Initialize
  1841                           
  1842     0620                     l990:	
  1843                           ;incstack = 0
  1844                           ; Regs used in _Timer0_Initialize: [wreg+status,2+status,0+pclath+cstack]
  1845                           
  1846                           
  1847                           ;mcc_generated_files/timer/src/tmr0.c: 53:   OPTION_REG = (uint8_t)((OPTION_REG & 0xC0) 
      +                          | (0xD7 & 0x3F));
  1848     0620  0021               	movlb	1	; select bank1
  1849     0621  0815               	movf	21,w	;volatile
  1850     0622  39C0               	andlw	192
  1851     0623  3817               	iorlw	23
  1852     0624  0095               	movwf	21	;volatile
  1853     0625                     l992:
  1854                           
  1855                           ;mcc_generated_files/timer/src/tmr0.c: 56:   TMR0 = 0xED;
  1856     0625  30ED               	movlw	237
  1857     0626  0020               	movlb	0	; select bank0
  1858     0627  0095               	movwf	21	;volatile
  1859     0628                     l994:
  1860                           
  1861                           ;mcc_generated_files/timer/src/tmr0.c: 59:   timer0ReloadVal = 237;
  1862     0628  30ED               	movlw	237
  1863     0629  00A8               	movwf	_timer0ReloadVal	;volatile
  1864     062A                     l996:
  1865                           
  1866                           ;mcc_generated_files/timer/src/tmr0.c: 62:   Timer0_OverflowCallbackRegister(Timer0_Defa
      +                          ultOverflowCallback);
  1867     062A  3000               	movlw	0
  1868     062B  00F0               	movwf	Timer0_OverflowCallbackRegister@CallbackHandler
  1869     062C  3000               	movlw	0
  1870     062D  00F1               	movwf	Timer0_OverflowCallbackRegister@CallbackHandler+1
  1871     062E  3186  2602  3186   	fcall	_Timer0_OverflowCallbackRegister
  1872     0631                     l998:
  1873                           
  1874                           ;mcc_generated_files/timer/src/tmr0.c: 65:   INTCONbits.TMR0IF = 0;
  1875     0631  110B               	bcf	11,2	;volatile
  1876     0632                     l111:
  1877     0632  0008               	return
  1878     0633                     __end_of_Timer0_Initialize:
  1879                           
  1880                           	psect	text6
  1881     0602                     __ptext6:	
  1882 ;; *************** function _Timer0_OverflowCallbackRegister *****************
  1883 ;; Defined at:
  1884 ;;		line 94 in file "mcc_generated_files/timer/src/tmr0.c"
  1885 ;; Parameters:    Size  Location     Type
  1886 ;;  CallbackHand    2    0[COMMON] PTR FTN()void 
  1887 ;;		 -> Timer0_OverflowCallback(1), Timer0_DefaultOverflowCallback(1), 
  1888 ;; Auto vars:     Size  Location     Type
  1889 ;;		None
  1890 ;; Return value:  Size  Location     Type
  1891 ;;                  1    wreg      void 
  1892 ;; Registers used:
  1893 ;;		wreg
  1894 ;; Tracked objects:
  1895 ;;		On entry : 0/0
  1896 ;;		On exit  : 0/0
  1897 ;;		Unchanged: 0/0
  1898 ;; Data sizes:     COMMON   BANK0   BANK1   BANK2   BANK3   BANK4   BANK5   BANK6   BANK7   BANK8   BANK9  BANK10  BANK1
      +1  BANK12
  1899 ;;      Params:         2       0       0       0       0       0       0       0       0       0       0       0       
      +0       0
  1900 ;;      Locals:         0       0       0       0       0       0       0       0       0       0       0       0       
      +0       0
  1901 ;;      Temps:          0       0       0       0       0       0       0       0       0       0       0       0       
      +0       0
  1902 ;;      Totals:         2       0       0       0       0       0       0       0       0       0       0       0       
      +0       0
  1903 ;;Total ram usage:        2 bytes
  1904 ;; Hardware stack levels used: 1
  1905 ;; This function calls:
  1906 ;;		Nothing
  1907 ;; This function is called by:
  1908 ;;		_Timer0_Initialize
  1909 ;;		_main
  1910 ;; This function uses a non-reentrant model
  1911 ;;
  1912                           
  1913     0602                     _Timer0_OverflowCallbackRegister:	
  1914                           ;psect for function _Timer0_OverflowCallbackRegister
  1915                           
  1916     0602                     l958:	
  1917                           ;incstack = 0
  1918                           ; Regs used in _Timer0_OverflowCallbackRegister: [wreg]
  1919                           
  1920                           
  1921                           ;mcc_generated_files/timer/src/tmr0.c: 94: void Timer0_OverflowCallbackRegister(void (* 
      +                          CallbackHandler)(void));mcc_generated_files/timer/src/tmr0.c: 95: {;mcc_generated_files/
      +                          timer/src/tmr0.c: 96:   Timer0_OverflowCallback = CallbackHandler;
  1922     0602  0871               	movf	Timer0_OverflowCallbackRegister@CallbackHandler+1,w
  1923     0603  0020               	movlb	0	; select bank0
  1924     0604  00B1               	movwf	_Timer0_OverflowCallback@tmr0$F279+1
  1925     0605  0870               	movf	Timer0_OverflowCallbackRegister@CallbackHandler,w
  1926     0606  00B0               	movwf	_Timer0_OverflowCallback@tmr0$F279
  1927     0607                     l126:
  1928     0607  0008               	return
  1929     0608                     __end_of_Timer0_OverflowCallbackRegister:
  1930                           
  1931                           	psect	text7
  1932     0633                     __ptext7:	
  1933 ;; *************** function _PIN_MANAGER_Initialize *****************
  1934 ;; Defined at:
  1935 ;;		line 38 in file "mcc_generated_files/system/src/pins.c"
  1936 ;; Parameters:    Size  Location     Type
  1937 ;;		None
  1938 ;; Auto vars:     Size  Location     Type
  1939 ;;		None
  1940 ;; Return value:  Size  Location     Type
  1941 ;;                  1    wreg      void 
  1942 ;; Registers used:
  1943 ;;		wreg, status,2
  1944 ;; Tracked objects:
  1945 ;;		On entry : 0/0
  1946 ;;		On exit  : 0/0
  1947 ;;		Unchanged: 0/0
  1948 ;; Data sizes:     COMMON   BANK0   BANK1   BANK2   BANK3   BANK4   BANK5   BANK6   BANK7   BANK8   BANK9  BANK10  BANK1
      +1  BANK12
  1949 ;;      Params:         0       0       0       0       0       0       0       0       0       0       0       0       
      +0       0
  1950 ;;      Locals:         0       0       0       0       0       0       0       0       0       0       0       0       
      +0       0
  1951 ;;      Temps:          0       0       0       0       0       0       0       0       0       0       0       0       
      +0       0
  1952 ;;      Totals:         0       0       0       0       0       0       0       0       0       0       0       0       
      +0       0
  1953 ;;Total ram usage:        0 bytes
  1954 ;; Hardware stack levels used: 1
  1955 ;; This function calls:
  1956 ;;		Nothing
  1957 ;; This function is called by:
  1958 ;;		_SYSTEM_Initialize
  1959 ;; This function uses a non-reentrant model
  1960 ;;
  1961                           
  1962     0633                     _PIN_MANAGER_Initialize:	
  1963                           ;psect for function _PIN_MANAGER_Initialize
  1964                           
  1965     0633                     l964:	
  1966                           ;incstack = 0
  1967                           ; Regs used in _PIN_MANAGER_Initialize: [wreg+status,2]
  1968                           
  1969                           
  1970                           ;mcc_generated_files/system/src/pins.c: 43:     LATA = 0x0;
  1971     0633  0022               	movlb	2	; select bank2
  1972     0634  018C               	clrf	12	;volatile
  1973                           
  1974                           ;mcc_generated_files/system/src/pins.c: 44:     LATB = 0x0;
  1975     0635  018D               	clrf	13	;volatile
  1976                           
  1977                           ;mcc_generated_files/system/src/pins.c: 45:     LATC = 0x0;
  1978     0636  018E               	clrf	14	;volatile
  1979     0637                     l966:
  1980                           
  1981                           ;mcc_generated_files/system/src/pins.c: 50:     TRISA = 0xD7;
  1982     0637  30D7               	movlw	215
  1983     0638  0021               	movlb	1	; select bank1
  1984     0639  008C               	movwf	12	;volatile
  1985     063A                     l968:
  1986                           
  1987                           ;mcc_generated_files/system/src/pins.c: 51:     TRISB = 0xF0;
  1988     063A  30F0               	movlw	240
  1989     063B  008D               	movwf	13	;volatile
  1990                           
  1991                           ;mcc_generated_files/system/src/pins.c: 52:     TRISC = 0x0;
  1992     063C  018E               	clrf	14	;volatile
  1993     063D                     l970:
  1994                           
  1995                           ;mcc_generated_files/system/src/pins.c: 53:     TRISE = 0x8;
  1996     063D  3008               	movlw	8
  1997     063E  0090               	movwf	16	;volatile
  1998     063F                     l972:
  1999                           
  2000                           ;mcc_generated_files/system/src/pins.c: 58:     ANSELA = 0x0;
  2001     063F  0023               	movlb	3	; select bank3
  2002     0640  018C               	clrf	12	;volatile
  2003                           
  2004                           ;mcc_generated_files/system/src/pins.c: 59:     ANSELB = 0x30;
  2005     0641  3030               	movlw	48
  2006     0642  008D               	movwf	13	;volatile
  2007     0643                     l974:
  2008                           
  2009                           ;mcc_generated_files/system/src/pins.c: 60:     ANSELC = 0x0;
  2010     0643  018E               	clrf	14	;volatile
  2011     0644                     l976:
  2012                           
  2013                           ;mcc_generated_files/system/src/pins.c: 65:     WPUB = 0xFF;
  2014     0644  30FF               	movlw	255
  2015     0645  0024               	movlb	4	; select bank4
  2016     0646  008D               	movwf	13	;volatile
  2017     0647                     l978:
  2018                           
  2019                           ;mcc_generated_files/system/src/pins.c: 66:     WPUE = 0x8;
  2020     0647  3008               	movlw	8
  2021     0648  0090               	movwf	16	;volatile
  2022     0649                     l980:
  2023                           
  2024                           ;mcc_generated_files/system/src/pins.c: 67:     OPTION_REGbits.nWPUEN = 0x0;
  2025     0649  0021               	movlb	1	; select bank1
  2026     064A  1395               	bcf	21,7	;volatile
  2027     064B                     l982:
  2028                           
  2029                           ;mcc_generated_files/system/src/pins.c: 91:     IOCBP = 0x0;
  2030     064B  0027               	movlb	7	; select bank7
  2031     064C  0194               	clrf	20	;volatile
  2032     064D                     l984:
  2033                           
  2034                           ;mcc_generated_files/system/src/pins.c: 92:     IOCBN = 0x0;
  2035     064D  0195               	clrf	21	;volatile
  2036     064E                     l986:
  2037                           
  2038                           ;mcc_generated_files/system/src/pins.c: 93:     IOCBF = 0x0;
  2039     064E  0196               	clrf	22	;volatile
  2040     064F                     l988:
  2041                           
  2042                           ;mcc_generated_files/system/src/pins.c: 97:     INTCONbits.IOCIE = 1;
  2043     064F  158B               	bsf	11,3	;volatile
  2044     0650                     l48:
  2045     0650  0008               	return
  2046     0651                     __end_of_PIN_MANAGER_Initialize:
  2047                           
  2048                           	psect	text8
  2049     0608                     __ptext8:	
  2050 ;; *************** function _INTERRUPT_Initialize *****************
  2051 ;; Defined at:
  2052 ;;		line 40 in file "mcc_generated_files/system/src/interrupt.c"
  2053 ;; Parameters:    Size  Location     Type
  2054 ;;		None
  2055 ;; Auto vars:     Size  Location     Type
  2056 ;;		None
  2057 ;; Return value:  Size  Location     Type
  2058 ;;                  1    wreg      void 
  2059 ;; Registers used:
  2060 ;;		wreg, status,2, status,0, pclath, cstack
  2061 ;; Tracked objects:
  2062 ;;		On entry : 0/0
  2063 ;;		On exit  : 0/0
  2064 ;;		Unchanged: 0/0
  2065 ;; Data sizes:     COMMON   BANK0   BANK1   BANK2   BANK3   BANK4   BANK5   BANK6   BANK7   BANK8   BANK9  BANK10  BANK1
      +1  BANK12
  2066 ;;      Params:         0       0       0       0       0       0       0       0       0       0       0       0       
      +0       0
  2067 ;;      Locals:         0       0       0       0       0       0       0       0       0       0       0       0       
      +0       0
  2068 ;;      Temps:          0       0       0       0       0       0       0       0       0       0       0       0       
      +0       0
  2069 ;;      Totals:         0       0       0       0       0       0       0       0       0       0       0       0       
      +0       0
  2070 ;;Total ram usage:        0 bytes
  2071 ;; Hardware stack levels used: 1
  2072 ;; Hardware stack levels required when called: 1
  2073 ;; This function calls:
  2074 ;;		_INT_SetInterruptHandler
  2075 ;; This function is called by:
  2076 ;;		_SYSTEM_Initialize
  2077 ;; This function uses a non-reentrant model
  2078 ;;
  2079                           
  2080     0608                     _INTERRUPT_Initialize:	
  2081                           ;psect for function _INTERRUPT_Initialize
  2082                           
  2083     0608                     l1000:	
  2084                           ;incstack = 0
  2085                           ; Regs used in _INTERRUPT_Initialize: [wreg+status,2+status,0+pclath+cstack]
  2086                           
  2087                           
  2088                           ;mcc_generated_files/system/src/interrupt.c: 44:     (INTCONbits.INTF = 0);
  2089     0608  108B               	bcf	11,1	;volatile
  2090                           
  2091                           ;mcc_generated_files/system/src/interrupt.c: 45:     (OPTION_REGbits.INTEDG = 1);
  2092     0609  0021               	movlb	1	; select bank1
  2093     060A  1715               	bsf	21,6	;volatile
  2094     060B                     l1002:
  2095                           
  2096                           ;mcc_generated_files/system/src/interrupt.c: 47:     INT_SetInterruptHandler(INT_Default
      +                          InterruptHandler);
  2097     060B  3000               	movlw	0
  2098     060C  00F0               	movwf	INT_SetInterruptHandler@InterruptHandler
  2099     060D  3000               	movlw	0
  2100     060E  00F1               	movwf	INT_SetInterruptHandler@InterruptHandler+1
  2101     060F  3185  25FC  3186   	fcall	_INT_SetInterruptHandler
  2102     0612                     l73:
  2103     0612  0008               	return
  2104     0613                     __end_of_INTERRUPT_Initialize:
  2105                           
  2106                           	psect	text9
  2107     05FC                     __ptext9:	
  2108 ;; *************** function _INT_SetInterruptHandler *****************
  2109 ;; Defined at:
  2110 ;;		line 71 in file "mcc_generated_files/system/src/interrupt.c"
  2111 ;; Parameters:    Size  Location     Type
  2112 ;;  InterruptHan    2    0[COMMON] PTR FTN()void 
  2113 ;;		 -> INT_DefaultInterruptHandler(1), 
  2114 ;; Auto vars:     Size  Location     Type
  2115 ;;		None
  2116 ;; Return value:  Size  Location     Type
  2117 ;;                  1    wreg      void 
  2118 ;; Registers used:
  2119 ;;		wreg
  2120 ;; Tracked objects:
  2121 ;;		On entry : 0/0
  2122 ;;		On exit  : 0/0
  2123 ;;		Unchanged: 0/0
  2124 ;; Data sizes:     COMMON   BANK0   BANK1   BANK2   BANK3   BANK4   BANK5   BANK6   BANK7   BANK8   BANK9  BANK10  BANK1
      +1  BANK12
  2125 ;;      Params:         2       0       0       0       0       0       0       0       0       0       0       0       
      +0       0
  2126 ;;      Locals:         0       0       0       0       0       0       0       0       0       0       0       0       
      +0       0
  2127 ;;      Temps:          0       0       0       0       0       0       0       0       0       0       0       0       
      +0       0
  2128 ;;      Totals:         2       0       0       0       0       0       0       0       0       0       0       0       
      +0       0
  2129 ;;Total ram usage:        2 bytes
  2130 ;; Hardware stack levels used: 1
  2131 ;; This function calls:
  2132 ;;		Nothing
  2133 ;; This function is called by:
  2134 ;;		_INTERRUPT_Initialize
  2135 ;; This function uses a non-reentrant model
  2136 ;;
  2137                           
  2138     05FC                     _INT_SetInterruptHandler:	
  2139                           ;psect for function _INT_SetInterruptHandler
  2140                           
  2141     05FC                     l956:	
  2142                           ;incstack = 0
  2143                           ; Regs used in _INT_SetInterruptHandler: [wreg]
  2144                           
  2145                           
  2146                           ;mcc_generated_files/system/src/interrupt.c: 72:     INT_InterruptHandler = InterruptHan
      +                          dler;
  2147     05FC  0871               	movf	INT_SetInterruptHandler@InterruptHandler+1,w
  2148     05FD  0020               	movlb	0	; select bank0
  2149     05FE  00B3               	movwf	_INT_InterruptHandler+1
  2150     05FF  0870               	movf	INT_SetInterruptHandler@InterruptHandler,w
  2151     0600  00B2               	movwf	_INT_InterruptHandler
  2152     0601                     l83:
  2153     0601  0008               	return
  2154     0602                     __end_of_INT_SetInterruptHandler:
  2155                           
  2156                           	psect	text10
  2157     05F6                     __ptext10:	
  2158 ;; *************** function _CLOCK_Initialize *****************
  2159 ;; Defined at:
  2160 ;;		line 39 in file "mcc_generated_files/system/src/clock.c"
  2161 ;; Parameters:    Size  Location     Type
  2162 ;;		None
  2163 ;; Auto vars:     Size  Location     Type
  2164 ;;		None
  2165 ;; Return value:  Size  Location     Type
  2166 ;;                  1    wreg      void 
  2167 ;; Registers used:
  2168 ;;		wreg, status,2
  2169 ;; Tracked objects:
  2170 ;;		On entry : 0/0
  2171 ;;		On exit  : 0/0
  2172 ;;		Unchanged: 0/0
  2173 ;; Data sizes:     COMMON   BANK0   BANK1   BANK2   BANK3   BANK4   BANK5   BANK6   BANK7   BANK8   BANK9  BANK10  BANK1
      +1  BANK12
  2174 ;;      Params:         0       0       0       0       0       0       0       0       0       0       0       0       
      +0       0
  2175 ;;      Locals:         0       0       0       0       0       0       0       0       0       0       0       0       
      +0       0
  2176 ;;      Temps:          0       0       0       0       0       0       0       0       0       0       0       0       
      +0       0
  2177 ;;      Totals:         0       0       0       0       0       0       0       0       0       0       0       0       
      +0       0
  2178 ;;Total ram usage:        0 bytes
  2179 ;; Hardware stack levels used: 1
  2180 ;; This function calls:
  2181 ;;		Nothing
  2182 ;; This function is called by:
  2183 ;;		_SYSTEM_Initialize
  2184 ;; This function uses a non-reentrant model
  2185 ;;
  2186                           
  2187     05F6                     _CLOCK_Initialize:	
  2188                           ;psect for function _CLOCK_Initialize
  2189                           
  2190     05F6                     l960:	
  2191                           ;incstack = 0
  2192                           ; Regs used in _CLOCK_Initialize: [wreg+status,2]
  2193                           
  2194                           
  2195                           ;mcc_generated_files/system/src/clock.c: 41:     OSCCON = (15 << 0x3)
  2196     05F6  3078               	movlw	120
  2197     05F7  0021               	movlb	1	; select bank1
  2198     05F8  0099               	movwf	25	;volatile
  2199     05F9                     l962:
  2200                           
  2201                           ;mcc_generated_files/system/src/clock.c: 43:     BORCON = (0 << 0x7)
  2202     05F9  0022               	movlb	2	; select bank2
  2203     05FA  0196               	clrf	22	;volatile
  2204     05FB                     l58:
  2205     05FB  0008               	return
  2206     05FC                     __end_of_CLOCK_Initialize:
  2207     007E                     btemp	set	126	;btemp
  2208     007E                     wtemp0	set	126
  2209                           
  2210                           	psect	config
  2211                           
  2212                           ;Config register CONFIG1 @ 0x8007
  2213                           ;	Oscillator Selection
  2214                           ;	FOSC = HS, HS Oscillator, High-speed crystal/resonator connected between OSC1 and OSC2
      +                           pins
  2215                           ;	Watchdog Timer Enable
  2216                           ;	WDTE = OFF, WDT disabled
  2217                           ;	Power-up Timer Enable
  2218                           ;	PWRTE = OFF, PWRT disabled
  2219                           ;	MCLR Pin Function Select
  2220                           ;	MCLRE = ON, MCLR/VPP pin function is MCLR
  2221                           ;	Flash Program Memory Code Protection
  2222                           ;	CP = OFF, Program memory code protection is disabled
  2223                           ;	Brown-out Reset Enable
  2224                           ;	BOREN = ON, Brown-out Reset enabled
  2225                           ;	Clock Out Enable
  2226                           ;	CLKOUTEN = OFF, CLKOUT function is disabled. I/O or oscillator function on the CLKOUT 
      +                          pin
  2227                           ;	Internal/External Switchover
  2228                           ;	IESO = ON, Internal/External Switchover mode is enabled
  2229                           ;	Fail-Safe Clock Monitor Enable
  2230                           ;	FCMEN = ON, Fail-Safe Clock Monitor is enabled
  2231     8007                     	org	32775
  2232     8007  3FE2               	dw	16354
  2233                           
  2234                           ;Config register CONFIG2 @ 0x8008
  2235                           ;	Flash Memory Self-Write Protection
  2236                           ;	WRT = OFF, Write protection off
  2237                           ;	Voltage Regulator Capacitor Enable bit
  2238                           ;	VCAPEN = OFF, VCAP pin function disabled
  2239                           ;	Stack Overflow/Underflow Reset Enable
  2240                           ;	STVREN = ON, Stack Overflow or Underflow will cause a Reset
  2241                           ;	Brown-out Reset Voltage Selection
  2242                           ;	BORV = LO, Brown-out Reset Voltage (Vbor), low trip point selected.
  2243                           ;	Low-Power Brown Out Reset
  2244                           ;	LPBOR = OFF, Low-Power BOR is disabled
  2245                           ;	Low-Voltage Programming Enable
  2246                           ;	LVP = ON, Low-voltage programming enabled
  2247     8008                     	org	32776
  2248     8008  3FFF               	dw	16383

Data Sizes:
    Strings     0
    Constant    22
    Data        0
    BSS         10
    Persistent  36
    Stack       0

Auto Spaces:
    Space          Size  Autos    Used
    COMMON           14     13      14
    BANK0            80      7      20
    BANK1            80      0       0
    BANK2            80      0       0
    BANK3            80      0       0
    BANK4            80      0       0
    BANK5            80      0       0
    BANK6            80      0       0
    BANK7            80      0       0
    BANK8            80      0       0
    BANK9            80      0       0
    BANK10           80      0       0
    BANK11           80      0       0
    BANK12           48      0       0

Pointer List with Targets:

    INT_InterruptHandler	PTR FTN()void  size(2) Largest target is 1
		 -> INT_DefaultInterruptHandler(), NULL(), 

    INT_SetInterruptHandler@InterruptHandler	PTR FTN()void  size(2) Largest target is 1
		 -> INT_DefaultInterruptHandler(), 

    S210$4$0	PTR FTN()void  size(2) Largest target is 1
		 -> Timer0_DefaultOverflowCallback(), Timer0_OverflowCallback(), 

    S210TMR_INTERFACE$Initialize	PTR FTN()void  size(2) Largest target is 1
		 -> Timer0_Initialize(), 

    S210TMR_INTERFACE$PeriodCountSet	PTR FTN(unsigned int ,)void  size(2) Largest target is 1
		 -> Timer0_Write(), 

    S210TMR_INTERFACE$Start	PTR FTN()void  size(2) Largest target is 1
		 -> NULL(), 

    S210TMR_INTERFACE$Stop	PTR FTN()void  size(2) Largest target is 1
		 -> NULL(), 

    S210TMR_INTERFACE$Tasks	PTR FTN()void  size(2) Largest target is 1
		 -> Timer0_Tasks(), 

    S210TMR_INTERFACE$TimeoutCallbackRegister	PTR FTN(PTR FTN()void ,)void  size(2) Largest target is 1
		 -> Timer0_OverflowCallbackRegister(), 

    Timer0$Initialize	PTR FTN()void  size(2) Largest target is 1
		 -> Timer0_Initialize(), 

    Timer0$PeriodCountSet	PTR FTN(unsigned int ,)void  size(2) Largest target is 1
		 -> Timer0_Write(), 

    Timer0$Start	PTR FTN()void  size(2) Largest target is 1
		 -> NULL(), 

    Timer0$Stop	PTR FTN()void  size(2) Largest target is 1
		 -> NULL(), 

    Timer0$Tasks	PTR FTN()void  size(2) Largest target is 1
		 -> Timer0_Tasks(), 

    Timer0$TimeoutCallbackRegister	PTR FTN(PTR FTN()void ,)void  size(2) Largest target is 1
		 -> Timer0_OverflowCallbackRegister(), 

    Timer0_OverflowCallback@tmr0$F279	PTR FTN()void  size(2) Largest target is 1
		 -> Timer0_DefaultOverflowCallback(), Timer0_OverflowCallback(), NULL(), 

    Timer0_OverflowCallbackRegister@CallbackHandler	PTR FTN()void  size(2) Largest target is 1
		 -> Timer0_DefaultOverflowCallback(), Timer0_OverflowCallback(), 


Critical Paths under _main in COMMON

    _main->_displayDigits
    _displayDigits->___awdiv
    _Timer0_Initialize->_Timer0_OverflowCallbackRegister
    _INTERRUPT_Initialize->_INT_SetInterruptHandler

Critical Paths under _main in BANK0

    _main->_displayDigits

Critical Paths under _main in BANK1

    None.

Critical Paths under _main in BANK2

    None.

Critical Paths under _main in BANK3

    None.

Critical Paths under _main in BANK4

    None.

Critical Paths under _main in BANK5

    None.

Critical Paths under _main in BANK6

    None.

Critical Paths under _main in BANK7

    None.

Critical Paths under _main in BANK8

    None.

Critical Paths under _main in BANK9

    None.

Critical Paths under _main in BANK10

    None.

Critical Paths under _main in BANK11

    None.

Critical Paths under _main in BANK12

    None.

Call Graph Tables:

 ---------------------------------------------------------------------------------
 (Depth) Function   	        Calls       Base Space   Used Autos Params    Refs
 ---------------------------------------------------------------------------------
 (0) _main                                                 1     1      0    2000
                                             12 COMMON     1     1      0
                  _SYSTEM_Initialize
    _Timer0_OverflowCallbackRegister
                      _displayDigits
 ---------------------------------------------------------------------------------
 (1) _displayDigits                                       10     9      1    1554
                                              9 COMMON     3     2      1
                                              0 BANK0      7     7      0
                            ___awdiv
                            ___awmod
 ---------------------------------------------------------------------------------
 (2) ___awmod                                              7     3      4     600
                                              0 COMMON     7     3      4
 ---------------------------------------------------------------------------------
 (2) ___awdiv                                              9     5      4     604
                                              0 COMMON     9     5      4
 ---------------------------------------------------------------------------------
 (1) _SYSTEM_Initialize                                    0     0      0     272
                   _CLOCK_Initialize
               _INTERRUPT_Initialize
             _PIN_MANAGER_Initialize
                  _Timer0_Initialize
 ---------------------------------------------------------------------------------
 (2) _Timer0_Initialize                                    0     0      0     174
    _Timer0_OverflowCallbackRegister
 ---------------------------------------------------------------------------------
 (1) _Timer0_OverflowCallbackRegister                      2     0      2     174
                                              0 COMMON     2     0      2
 ---------------------------------------------------------------------------------
 (2) _PIN_MANAGER_Initialize                               0     0      0       0
 ---------------------------------------------------------------------------------
 (2) _INTERRUPT_Initialize                                 0     0      0      98
            _INT_SetInterruptHandler
 ---------------------------------------------------------------------------------
 (3) _INT_SetInterruptHandler                              2     0      2      98
                                              0 COMMON     2     0      2
 ---------------------------------------------------------------------------------
 (2) _CLOCK_Initialize                                     0     0      0       0
 ---------------------------------------------------------------------------------
 Estimated maximum stack depth 3
 ---------------------------------------------------------------------------------

 Call Graph Graphs:

 _main (ROOT)
   _SYSTEM_Initialize
     _CLOCK_Initialize
     _INTERRUPT_Initialize
       _INT_SetInterruptHandler
     _PIN_MANAGER_Initialize
     _Timer0_Initialize
       _Timer0_OverflowCallbackRegister
   _Timer0_OverflowCallbackRegister
   _displayDigits
     ___awdiv
     ___awmod

 Address spaces:
Name               Size   Autos  Total    Cost      Usage
BIGRAM             3F0      0       0       0        0.0%
NULL                 0      0       0       0        0.0%
CODE                 0      0       0       0        0.0%
BITCOMMON            E      0       0       1        0.0%
BITSFR0              0      0       0       1        0.0%
SFR0                 0      0       0       1        0.0%
COMMON               E      D       E       2      100.0%
BITSFR1              0      0       0       2        0.0%
SFR1                 0      0       0       2        0.0%
BITSFR2              0      0       0       3        0.0%
SFR2                 0      0       0       3        0.0%
STACK                0      0       0       3        0.0%
BITBANK0            50      0       0       4        0.0%
BITSFR3              0      0       0       4        0.0%
SFR3                 0      0       0       4        0.0%
BANK0               50      7      14       5       25.0%
BITSFR4              0      0       0       5        0.0%
SFR4                 0      0       0       5        0.0%
BITBANK1            50      0       0       6        0.0%
BITSFR5              0      0       0       6        0.0%
SFR5                 0      0       0       6        0.0%
BANK1               50      0       0       7        0.0%
BITSFR6              0      0       0       7        0.0%
SFR6                 0      0       0       7        0.0%
BITBANK2            50      0       0       8        0.0%
BITSFR7              0      0       0       8        0.0%
SFR7                 0      0       0       8        0.0%
BANK2               50      0       0       9        0.0%
BITSFR8              0      0       0       9        0.0%
SFR8                 0      0       0       9        0.0%
BITBANK3            50      0       0      10        0.0%
BITSFR9              0      0       0      10        0.0%
SFR9                 0      0       0      10        0.0%
BANK3               50      0       0      11        0.0%
BITSFR10             0      0       0      11        0.0%
SFR10                0      0       0      11        0.0%
BITBANK4            50      0       0      12        0.0%
BITSFR11             0      0       0      12        0.0%
SFR11                0      0       0      12        0.0%
BANK4               50      0       0      13        0.0%
BITSFR12             0      0       0      13        0.0%
SFR12                0      0       0      13        0.0%
BITBANK5            50      0       0      14        0.0%
BITSFR13             0      0       0      14        0.0%
SFR13                0      0       0      14        0.0%
BANK5               50      0       0      15        0.0%
BITSFR14             0      0       0      15        0.0%
SFR14                0      0       0      15        0.0%
BITBANK6            50      0       0      16        0.0%
BITSFR15             0      0       0      16        0.0%
SFR15                0      0       0      16        0.0%
BANK6               50      0       0      17        0.0%
BITSFR16             0      0       0      17        0.0%
SFR16                0      0       0      17        0.0%
BITBANK7            50      0       0      18        0.0%
BITSFR17             0      0       0      18        0.0%
SFR17                0      0       0      18        0.0%
BANK7               50      0       0      19        0.0%
BITSFR18             0      0       0      19        0.0%
SFR18                0      0       0      19        0.0%
BITSFR19             0      0       0      20        0.0%
SFR19                0      0       0      20        0.0%
ABS                  0      0      22      20        0.0%
BITBANK8            50      0       0      21        0.0%
BITSFR20             0      0       0      21        0.0%
SFR20                0      0       0      21        0.0%
BANK8               50      0       0      22        0.0%
BITSFR21             0      0       0      22        0.0%
SFR21                0      0       0      22        0.0%
BITBANK9            50      0       0      23        0.0%
BITSFR22             0      0       0      23        0.0%
SFR22                0      0       0      23        0.0%
BANK9               50      0       0      24        0.0%
BITSFR23             0      0       0      24        0.0%
SFR23                0      0       0      24        0.0%
BITBANK10           50      0       0      25        0.0%
BITSFR24             0      0       0      25        0.0%
SFR24                0      0       0      25        0.0%
BANK10              50      0       0      26        0.0%
BITSFR25             0      0       0      26        0.0%
SFR25                0      0       0      26        0.0%
BITBANK11           50      0       0      27        0.0%
BITSFR26             0      0       0      27        0.0%
SFR26                0      0       0      27        0.0%
BANK11              50      0       0      28        0.0%
BITSFR27             0      0       0      28        0.0%
SFR27                0      0       0      28        0.0%
BITBANK12           30      0       0      29        0.0%
BITSFR28             0      0       0      29        0.0%
SFR28                0      0       0      29        0.0%
BANK12              30      0       0      30        0.0%
BITSFR29             0      0       0      30        0.0%
SFR29                0      0       0      30        0.0%
BITSFR30             0      0       0      31        0.0%
SFR30                0      0       0      31        0.0%
DATA                 0      0      22      31        0.0%
BITSFR31             0      0       0      32        0.0%
SFR31                0      0       0      32        0.0%


Microchip Technology PIC Macro Assembler V2.46 build 20240104201356 
Symbol Table                                                                                   Wed Sep 04 11:57:41 2024

                                            l11 061F                                              l48 0650  
                                            l73 0612                                              l58 05FB  
                                            l83 0601                                    ___awdiv@sign 0076  
                               _timer0ReloadVal 0028                                             l111 0632  
                                           l126 0607                                             l162 07F1  
                                           l413 0702                                             l426 06A3  
                                           l187 0764                                             l960 05F6  
                                           l962 05F9                                             l970 063D  
                                           l956 05FC                                             l980 0649  
                                           l972 063F                                             l964 0633  
                                           l982 064B                                             l974 0643  
                                           l966 0637                                             l958 0602  
                                           l990 0620                                             l984 064D  
                                           l976 0644                                             l968 063A  
                                           l992 0625                                             l986 064E  
                                           l978 0647                                             l994 0628  
                                           l988 064F                                             l996 062A  
                                           l998 0631                                             u400 06A9  
                                           u401 06A8                                             u410 06B4  
                                           u411 06B3                                             u420 06C5  
                                           u500 0656                                             u421 06C4  
                                           u501 0655                                             u510 0661  
                                           u511 0660                                             u440 06D5  
                                           u520 066C                                             u441 06D4  
                                           u521 066B                                             u435 06C9  
                                           u460 06E4                                             u540 067C  
                                           u604 07DC                                             u700 072F  
                                           u461 06E3                                             u541 067B  
                                           u605 07DB                                             u701 072E  
                                           u550 0686                                             u710 0735  
                                           u455 06D6                                             u551 0685  
                                           u535 0670                                             u711 0734  
                                           u480 06F4                                             u720 073A  
                                           u481 06F3                                             u465 06E0  
                                           u721 0739                                             u490 06F9  
                                           u570 0695                                             u730 0746  
                                           u491 06F8                                             u475 06EA  
                                           u571 0694                                             u555 0682  
                                           u731 0745                                             u580 069A  
                                           u740 074B                                             u581 0699  
                                           u565 068B                                             u741 074A  
                                           u590 07C6                                             u750 0751  
                                           u670 0714                                             u591 07C5  
                                           u751 0750                                             u807 073D  
                                           u671 0713                                             u760 075D  
                                           u680 0719                                             u761 075C  
                                           u817 0754                                             u681 0718  
                                           u770 0762                                             u690 0725  
                                           u827 07E4                                             u595 07C2  
                                           u771 0761                                             u691 0724  
                                           u780 0768                                             u781 0767  
                                           u797 071C                                    ___awmod@sign 0076  
                                           wreg 0009                                  ?_displayDigits 0079  
                                          l1000 0608                                            l1002 060B  
                                          l1010 06AE                                            l1020 06BF  
                                          l1012 06B0                                            l1004 06A4  
                                          l1100 07E1                                            l1030 06D5  
                                          l1022 06C5                                            l1014 06B4  
                                          l1006 06A5                                            l1102 07E9  
                                          l1032 06E4                                            l1024 06C8  
                                          l1040 06F4                                            l1016 06B9  
                                          l1008 06A9                                            l1104 07EB  
                                          l1042 06F9                                            l1034 06E8  
                                          l1026 06CD                                            l1018 06BD  
                                          l1050 0652                                            l1044 06FE  
                                          l1036 06E9                                            l1028 06D1  
                                          l1060 0666                                            l1052 0656  
                                          l1038 06EE                                            l1070 067C  
                                          l1062 066C                                            l1054 065B  
                                          l1150 070F                                            l1080 069A  
                                          l1072 0686                                            l1064 066F  
                                          l1056 065D                                            l1048 0651  
                                          l1160 0729                                            l1152 0714  
                                          l1144 0703                                            l1082 069F  
                                          l1074 068A                                            l1066 0674  
                                          l1058 0661                                            l1090 07B7  
                                          l1170 0741                                            l1162 072F  
                                          l1154 0719                                            l1146 0706  
                                          l1076 068F                                            l1068 0678  
                                          l1092 07B9                                            l1180 0758  
                                          l1172 0746                                            l1156 0720  
                                          l1164 0731                                            l1148 0707  
                                          l1086 0613                                            l1078 0695  
                                          l1182 075D                                            l1174 074B  
                                          l1166 0735                                            l1158 0725  
                                          l1096 07C7                                            l1088 0773  
                                          l1184 0762                                            l1168 073A  
                                          l1176 074D                                            l1098 07D6  
                                          l1178 0751                                            l1186 0768  
                                          _LATA 010C                                            _LATB 010D  
                                          _LATC 010E                                            _TMR0 0015  
                                          _WPUB 020D                                            _WPUE 0210  
                                          _main 0703                                            fsr0h 0005  
                                          fsr1h 0007                                            indf0 0000  
                                          fsr0l 0004                                            indf1 0001  
                                          fsr1l 0006                                            btemp 007E  
                   _INT_DefaultInterruptHandler 0000                                            start 0002  
               __end_of_INT_SetInterruptHandler 0602                                           ?_main 0070  
                               __end_of___awdiv 0703                                 __end_of___awmod 06A4  
                               ___awdiv@divisor 0070                                           _IOCBF 0396  
                                         _IOCBN 0395                                           _IOCBP 0394  
                               ___awdiv@counter 0075                                           _TRISA 008C  
                                         _TRISB 008D                                           _TRISC 008E  
                                         _TRISE 0090                                           _digit 0020  
                                         status 0003                                           wtemp0 007E  
                               __initialization 07F2                                    __end_of_main 0771  
                                        ??_main 007C                                 ??_displayDigits 007A  
                          displayDigits@minutes 002D                            displayDigits@seconds 0079  
                              ___awdiv@dividend 0072                                          _ANSELA 018C  
                                        _ANSELB 018D                                          _ANSELC 018E  
                                        _BORCON 0116                                          _OSCCON 0099  
                                        _Timer0 0800                                       ??___awdiv 0074  
                                     ??___awmod 0074                                ___awdiv@quotient 0077  
                               ___awmod@divisor 0070                                 ___awmod@counter 0075  
                             ?_CLOCK_Initialize 0070                              ??_CLOCK_Initialize 0070  
       INT_SetInterruptHandler@InterruptHandler 0070                               _SYSTEM_Initialize 0613  
       __end_of_Timer0_OverflowCallbackRegister 0608               ??_Timer0_OverflowCallbackRegister 0072  
              ?_Timer0_OverflowCallbackRegister 0070                 _Timer0_OverflowCallbackRegister 0602  
                       __end_of__initialization 07FD                              ?_SYSTEM_Initialize 0070  
                                __pcstackCOMMON 0070                             ??_SYSTEM_Initialize 0072  
                                _OPTION_REGbits 0095                       __end_of_SYSTEM_Initialize 0620  
                                    __pbssBANK0 0020                                      __pmaintext 0703  
                                       ___awdiv 06A4                                         ___awmod 0651  
                             _Timer0_Initialize 0620                                  displayDigits@i 002E  
                            ?_Timer0_Initialize 0070                                         __ptext1 0771  
                                       __ptext2 0651                                         __ptext3 06A4  
                                       __ptext4 0613                                         __ptext5 0620  
                                       __ptext6 0602                                         __ptext7 0633  
                                       __ptext8 0608                                         __ptext9 05FC  
                              ___awmod@dividend 0072                                         _minutes 007D  
                      ??_PIN_MANAGER_Initialize 0070                                         _seconds 0027  
                       _INT_SetInterruptHandler 05FC                             ??_Timer0_Initialize 0072  
                          end_of_initialization 07FD                 Timer0_OverflowCallback@ms_count 0024  
             _Timer0_OverflowCallback@tmr0$F279 0030                       __end_of_Timer0_Initialize 0633  
                                     _PORTAbits 000C                           __end_of_displayDigits 07F2  
Timer0_OverflowCallbackRegister@CallbackHandler 0070                              displayDigits@digit 0029  
                                __end_of_Timer0 080C                    __end_of_INTERRUPT_Initialize 0613  
                     ??_INT_SetInterruptHandler 0072                             start_initialization 07F2  
                                   __pbssCOMMON 007D                                       ___latbits 0003  
                                 __pcstackBANK0 0029                                       __pnvBANK0 0030  
                        _PIN_MANAGER_Initialize 0633                                        ?___awdiv 0070  
                                      ?___awmod 0070                  _Timer0_DefaultOverflowCallback 0000  
                           __end_of_SEGMENT_MAP 0816                            _INTERRUPT_Initialize 0608  
                              _CLOCK_Initialize 05F6                           ?_INTERRUPT_Initialize 0070  
                                  _Timer0_Tasks 0000                                    _Timer0_Write 0000  
                                   _SEGMENT_MAP 080C                                        __ptext10 05F6  
                                    _INTCONbits 000B                                   _timer_running 0026  
                          _INT_InterruptHandler 0032                          ??_INTERRUPT_Initialize 0072  
                       _Timer0_OverflowCallback 0000                         ?_PIN_MANAGER_Initialize 0070  
                      ?_INT_SetInterruptHandler 0070                        __end_of_CLOCK_Initialize 05FC  
                                 __pstringtext1 0800                                   __pstringtext2 080C  
                                    _OPTION_REG 0095                                   _displayDigits 0771  
                __end_of_PIN_MANAGER_Initialize 0651  
